(lp0
(VBro-75
p1
(lp2
V19R8zFK9QE7RwqyCzFP8KJuZBmY2XKNDqU
p3
aV15mrx59JZJ5nLvDVwD6yMYecAgDfEshxmF
p4
aV168dzTZi68ix8rBMj87No55iZyh9AsbGAs
p5
aV1EEHFAzSxgTgqu6EoyRmzT1t6fWT2HovGv
p6
aV31zAYkF1zvKMddC5fcqWeGSHTR1dtewYo5
p7
atp8
a(Vwe_are_all_the_same
p9
(lp10
V13kSAzaxcpkKpBb5J5vYbNQe3EEyakMSgc
p11
aV1QLZkG1e5QefyDeFmT3htz631NYuvoZABe
p12
aV1HoYh5FD9GHS65Jg79mKZpQJjkUE7ai6Dc
p13
atp14
a(Vreadish
p15
(lp16
V17686a64065799190aeda3aa7e42f59e
p17
atp18
a(Vlimits_are_lies
p19
(lp20
V14S7zTpsH3wp3jFAd5fDVYU9UxQfJozuXW
p21
atp22
a(Vgianluca82
p23
(lp24
V1L6xQjRtGiKZLhGrqbWFQuTwPukbWJ1AEC
p25
atp26
a(Vnerimon
p27
(lp28
V1GDpqJc51MiVE6Zo6FnWAuBfhxtdkLX84S
p29
atp30
a(VBitcoinDevan
p31
(lp32
V1B4b5GnZP9Z93RzeRd12f4pFr7x9SFKf4i
p33
atp34
a(VKalin101
p35
(lp36
V1JryTePceSiWVpoNBU8SbwiT7J4ghzijzW
p37
atp38
a(VMildlySuppressed
p39
(lp40
V1JciCT8Y71FwXZUMFtckvnZNYY8W1Y5FyU
p41
atp42
a(VAnArchoz
p43
(lp44
V18seBSX6QzTdrrr8e7DvzwzfptPGsHm5yG
p45
atp46
a(Vflow_mass
p47
(lp48
V17ucwKSwAj74jcKx1tNhBDM18hk6d6V62j
p49
atp50
a(Vdrbitcorn
p51
(lp52
V375kfCHfV9cFyejG8Cuj2SC3iQGVn8APpM
p53
atp54
a(VBro-75
p55
(lp56
V19R8zFK9QE7RwqyCzFP8KJuZBmY2XKNDqU
p57
aV15mrx59JZJ5nLvDVwD6yMYecAgDfEshxmF
p58
aV168dzTZi68ix8rBMj87No55iZyh9AsbGAs
p59
aV1EEHFAzSxgTgqu6EoyRmzT1t6fWT2HovGv
p60
aV31zAYkF1zvKMddC5fcqWeGSHTR1dtewYo5
p61
atp62
a(Vwe_are_all_the_same
p63
(lp64
V13kSAzaxcpkKpBb5J5vYbNQe3EEyakMSgc
p65
aV1QLZkG1e5QefyDeFmT3htz631NYuvoZABe
p66
aV1HoYh5FD9GHS65Jg79mKZpQJjkUE7ai6Dc
p67
atp68
a(Vreadish
p69
(lp70
V17686a64065799190aeda3aa7e42f59e
p71
atp72
a(Vlimits_are_lies
p73
(lp74
V14S7zTpsH3wp3jFAd5fDVYU9UxQfJozuXW
p75
atp76
a(Vgianluca82
p77
(lp78
V1L6xQjRtGiKZLhGrqbWFQuTwPukbWJ1AEC
p79
atp80
a(VStupidJerks2
p81
(lp82
V13AbqEg6K5WtRUgmvn4aFRn6DwrXti6VSZ
p83
atp84
a(Vperfectperformance
p85
(lp86
V1D8ZCg2dHjTfLVGhbkCzffXsWE6ogkRMj9
p87
aV3LdN1vq4RtJrWcSzw2AVgjJsbY9woQd2Es
p88
aV16Bo1u5d5KuJpbFZ4RF62Vsi37wxCTiUsM
p89
aV39dn9QiBtgBU6UhNVxQi2F7wvk5Y31ZwMK
p90
atp91
a(Vbitcoinrecoverypls
p92
(lp93
V1E6eheMU6dHayVbkqrHKcPBRPphV5vLL6D
p94
atp95
a(Vreadish
p96
(lp97
V17686a64065799190aeda3aa7e42f59e
p98
atp99
a(Vmewald55
p100
(lp101
V1LTvYhbpur5nZMe3hifMGgq28MMBzRgNdC
p102
atp103
a(Vxxfpeter
p104
(lp105
V12PYBy89CUJkoJyar48E2Shys7GBMY4CxJ
p106
aV1EWFRmPgsq3oBWRg1J23oqV3X4ydCZFXiq
p107
atp108
a(V56KbKid
p109
(lp110
V18JCmLzKQoZydXspc6CPwovWVwYtUT7DCx
p111
aV18ZnbD5JQwdEJRwKrb34nXPu7J6pHN1CMR
p112
aV18ZnbD5JQwdEJRwKrb34nXPu7J6pHN1CMR
p113
aV16YiXuw4eaFVvpyhX7mYufwsj77LHrydUx
p114
aV16YiXuw4eaFVvpyhX7mYufwsj77LHrydUx
p115
aV1NndjYLXPgHmSFYEk5exCabGbcynzqpii4
p116
atp117
a(Vfork_your_mother
p118
(lp119
V143255RWcqQdbq9apZhfugSYFMC1TXi2qm
p120
atp121
a(Vlanden_schmitt
p122
(lp123
V3Bit1xA4apyzgmFNT2k8Pvnd6zb6TnwcTi
p124
atp125
a(Vpaberlance
p126
(lp127
V1N5KxMYvY4c76bz8jTHLjM5rhGPsRkqLnR
p128
atp129
a(Vcallosciurini
p130
(lp131
V3Bit1xA4apyzgmFNT2k8Pvnd6zb6TnwcTi
p132
aV3Bit1xA4apyzgmFNT2k8Pvnd6zb6TnwcTi
p133
atp134
a(Vaffinespaceship
p135
(lp136
V1B1QBDtFaJJK3iF3LypJJpZ5WozVCfjRpB
p137
atp138
a(VVeganSense
p139
(lp140
V37T7aqLAAD7kernbpBsSRo74qkSuePpeSH
p141
atp142
a(Vhacked123456
p143
(lp144
V1Thanks2ySqoJ58P3KE5WaoTytkvR5rhN
p145
aV12b7z73W3SXn34nLmEgpY6nxbHxJT4nN9m
p146
atp147
a(Vgjakovar
p148
(lp149
V19i5sRwtoYp5EKujVbm1LuShaFBEoWAxMd
p150
atp151
a(Vgimmeanaccountffs
p152
(lp153
V12bBfTPYfkwyQxrLmJWMGvsbgTriBbLYvr
p154
atp155
a(VConservativeSavage
p156
(lp157
V1ExP8bNdrtoNuoEL3UCtLMZAefRNNzp776
p158
atp159
a(Vbenbenthree
p160
(lp161
V19tzYBN4ku9xM9uPu3iaaL3Yt3QqmcLPP6
p162
atp163
a(VBitcoinInKor
p164
(lp165
V1Lc1jhXdsB7t1XpTdNbrchnxKQide9tMia
p166
atp167
a(VDeathThrasher
p168
(lp169
V1QGbpENUv3xJCtiqTcUPM1Vvnwx5FRR6uZ
p170
aV1QGbpENUv3xJCtiqTcUPM1Vvnwx5FRR6uZ
p171
atp172
a(Vawicher
p173
(lp174
V1HTtbPu2pwJq3CyCjd954DkdzGsXMztthB
p175
atp176
a(Vuno_anonymous
p177
(lp178
V15Z5YJaaNSxeynvr6uW6jQZLwq3n1Hu6RX
p179
atp180
a(Vgaboto83
p181
(lp182
V1DaHfXsoPfZ2jznJhB62vR3QEVFhhZ2tMR
p183
atp184
a(Vjeemond
p185
(lp186
V1HWea1oE6d9AUfQYxvQ8X467V3KiYqYEhJ
p187
aV37DpVjrkfhvDzcpDF42fuSVEatd2vHcJCY
p188
aV1MSVjj6itVtW7wadk1pjf4WUScCZsSqhxb
p189
atp190
a(Vjimbleme
p191
(lp192
V3HuhK4si8nHWNVnHUWsDotjG9mQJ2bPd6B
p193
aV3HuhK4si8nHWNVnHUWsDotjG9mQJ2bPd6B
p194
aV3HuhK4si8nHWNVnHUWsDotjG9mQJ2bPd6B
p195
atp196
a(VCraZy_LegenD
p197
(lp198
V1DiALBPC4rBHVV3BY9vcWo88NsN9MHXNsQ
p199
aV1DiALBPC4rBHVV3BY9vcWo88NsN9MHXNsQ
p200
atp201
a(VRHavar
p202
(lp203
V37LkKYcwtZv2bsEbGZhGtGdYwvWGmv3L6f
p204
atp205
a(VTomer47
p206
(lp207
V1Jeyrbt2vZahXAsuKfMK6ePVCqbx681tFW
p208
atp209
a(Vkrypt951
p210
(lp211
V3KJhFo6ENYnw1ehac91pGhNVED6LgPoR61
p212
aV3LnqRBvXPgZirRsJcPGkzyCgWj7H7t3UcR
p213
aV35xAUh2tJBx5JtfmyJFPhbrFB6L214WSPv
p214
aV3KJhFo6ENYnw1ehac91pGhNVED6LgPoR61
p215
atp216
a(VPatatoo
p217
(lp218
V1ad93182fe0b4f0b7be2e52ca12f9828
p219
atp220
a(VIkazaki
p221
(lp222
V12cbQLTFMXRnSzktFkuoG3eHoMeFtpTu3S
p223
aV12cbQLTFMXRnSzktFkuoG3eHoMeFtpTu3S
p224
atp225
a(VAthena-Patrick
p226
(lp227
V1G7n9PAmypGhrvHDT3KjtyWbbeoKXajEmd
p228
aV1G7n9PAmypGhrvHDT3KjtyWbbeoKXajEmd
p229
atp230
a(VNenaDaconte
p231
(lp232
V3PtXwbscV7yXzPpoey1Wpws78ZfkxxrfWs
p233
atp234
a(Vlerbe
p235
(lp236
V1LUq4863U6kaunFo92hu1wm1qRFxt7QF6X
p237
aV1KhaSCo1LEnproY6sKEWv3FoG7qR2gxhNG
p238
atp239
a(Vddepra
p240
(lp241
V1NVwNAqWy3YvJPSwdqPnFLL91mQe7EmZsb
p242
atp243
a(VJay27
p244
(lp245
V145c4WiNVSY2fyC5k2WXBWioQfRs4LyTjY
p246
aV145c4WiNVSY2fyC5k2WXBWioQfRs4LyTjY
p247
atp248
a(Vayoon424
p249
(lp250
V18EC97UDuL8vgofyrKmfNGjvddq8hefwVm
p251
atp252
a(Vmattjc882002
p253
(lp254
V1FVESHCZeU8BvZqQgy7EBeMwUWUejVcCch
p255
aV1BXJnYkQydy7oJpEkpxTtaQHoY93st8Zb3
p256
aV12Cm8jrjomdXXy3zq5wgBqKuGgatSrLT4i
p257
aV16iX9bjHP99Eq8TnUzQGvvsAS1T4qUAkcF
p258
atp259
a(Vnyaaaa
p260
(lp261
V3AX7T8fd6F2LsZyPdk6e6M1ddbzd5ZPbek
p262
atp263
a(Vcryptomoonlambo
p264
(lp265
V14Wz4SCuKwa81UBh1U7mcaCTxMsYLLuGZK
p266
atp267
a(V20karaktererastesore
p268
(lp269
V1HHWxiSKxXso119fptePXaVkkmCRUuz1R2
p270
atp271
a(Vj3lunt
p272
(lp273
V1632ms2o69acq7Kwp3dX2TyDpeHSijH3rq
p274
atp275
a(Vexcitmemor
p276
(lp277
V1PRiME51qppfiXuTZdmNxZnXeF1fFKdRSG
p278
atp279
a(VBricaroni
p280
(lp281
V1MrDv69ZbZq4VGkHpnAQCo2QqSfmuMvX55
p282
atp283
a(Vchloe2011
p284
(lp285
V1AS3hiKTnZbyLq8yywuF9tzoF8hgAb7kYm
p286
atp287
a(Vrmmbrthnm
p288
(lp289
V1N11UhsocNAqcYue4EZ1obv25xZqv4jpsB
p290
atp291
a(Vrain-is-wet
p292
(lp293
V1WriteySQufKZ2pVuM1oMhPrTtTVFq35j
p294
aV1NSwywA5Dvuyw89sfs3oLPvLiDNGf48cPD
p295
atp296
a(VLuisLima98
p297
(lp298
V13P7nwPpCHTELmL6iJcMcLyWgfn4xv7LYM
p299
atp300
a(VDumiCom
p301
(lp302
V18SuPxynHnuB7XJBgbTv1MGXtirBERjjQJ
p303
atp304
a(Vem-zee
p305
(lp306
V1DNWV8QhVXu7HjrFoT2o9u74z5UfKBxBna
p307
atp308
a(VAlan2420
p309
(lp310
V3xxxxxxxxxxxxxxxxxxxxxxxxxxxxxxxxx
p311
aV3xxxxxxxxxxxxxxxxxxxxxxxxxxxxxxxxx
p312
atp313
a(Vhrones
p314
(lp315
V1Gi9uberSWjPnWT6UUKePUFUWWryqUxaPk
p316
atp317
a(Vger868
p318
(lp319
V1FeexV6bAHb8ybZjqQMjJrcCrHGW9sb6uF
p320
atp321
a(VConch3r15
p322
(lp323
V1Cmw5jABpxaJgjCqqGmAg2ydLVQJbMQiYr
p324
atp325
a(Vallyougottado
p326
(lp327
V1LPc59qvBVaqRkJkaEuZjQhRnHrUwZhJ36
p328
atp329
a(Vkapponen
p330
(lp331
V17Bg4KwLRzBGcUyMenFhBTiaiiJSD6HBNi
p332
atp333
a(Velectriczap4
p334
(lp335
V16vNasUyGiRREmNYvqENhhGSXPQX1aXeCU
p336
atp337
a(Vtrollelogram
p338
(lp339
V1CHqq6xvbkecCqtgTrpga35oxqGR9mDDiN
p340
atp341
a(Vcryptohype
p342
(lp343
V14tbVkExcNEvhSfpn6cr9qjdAwTurLjHMc
p344
atp345
a(Vtaktokotkat
p346
(lp347
V1HLoD9E4SDFFPDiYfNYnkBLQ85Y51J3Zb1
p348
aV13CeYW5opbzf3eW9FNTWS4mnquQJ9bje5t
p349
atp350
a(Vpacolaro
p351
(lp352
V1Nae2EQdUZf4z9w2tz7hzQuHqngCoiY2CG
p353
aV1Nae2EQdUZf4z9w2tz7hzQuHqngCoiY2CG
p354
atp355
a(Vbubbahent
p356
(lp357
V1CEj1EiJZRxARMjjwV4qDWYLeDLuQwuXvQ
p358
atp359
a(Vcouscous200
p360
(lp361
V1EnVXBPB1r5Kak7wDg9E5Y3fjr82sLJePy
p362
atp363
a(Vdeadzavri
p364
(lp365
V1JX1kXQwvupQYJ9S593LJXMDCrMQ115MGg
p366
atp367
a(Vthrowme1955
p368
(lp369
V1KuEFp9KhgVJ2Ww4tNB1h1dNcghHify1j4
p370
atp371
a(Vtravisjd2012
p372
(lp373
V1D2NXX1mJcLUmwdRAihjdfQ6jP9ZdRHUvh
p374
atp375
a(VSir_Nom_de_Guerre
p376
(lp377
V1DGv99pkF8idxrmUbRN29TiVfMsvYp69cN
p378
atp379
a(VAmicableD
p380
(lp381
V1MNvaAXfZJV2JGuvCyfbUHhYEemSEEnm6a
p382
atp383
a(VCryptostuck
p384
(lp385
V1PjjAs7zCaQYHC6GivRb2rPs4ALSFWKEoP
p386
atp387
a(Vflopmayweather
p388
(lp389
V17sa44SZLsgzkpaz9gRiLcyujkX5YfAwE8
p390
atp391
a(Vbitcoinstarter
p392
(lp393
V1CgCM4qdEBpCLJt6yrbHn9w39J2gtd6HNt
p394
atp395
a(Vddbbccoopper
p396
(lp397
V1Fc2WDYQJ4MQqTJjdKqYdWuNWjdBk1aMxU
p398
atp399
a(VSpazzzMonkey
p400
(lp401
V3PDJMAMEH27QMT8cusCPXeJpdaryr9hrFQ
p402
atp403
a(Vpimpingken
p404
(lp405
V1G4CjzQzYJ2fty5RXc4U1LCrdKUrHtwxu5
p406
atp407
a(Velmoelmo69
p408
(lp409
V1BeSnUiYgYZyxdZ9HoC4CwuZJ8wTseE8DZ
p410
atp411
a(Vpimpingken
p412
(lp413
V1G4CjzQzYJ2fty5RXc4U1LCrdKUrHtwxu5
p414
atp415
a(VIntro24
p416
(lp417
V1HLmDVf7HhGmcmYop1eEKJQNHmrhjYJv49
p418
atp419
a(VKaloyan14
p420
(lp421
V1Dq9x9Dp3CPyLbypfrBJ5TvyZYJQNiv5zP
p422
atp423
a(VEik_NL
p424
(lp425
V1EEoToJ4eRt3hnpetvtDojpkHkznhDUEWP
p426
atp427
a(Vdementperson
p428
(lp429
V1JbZpEhHDuNqmquWyBu1zt5oorVsy28VMn
p430
atp431
a(Vjeffreyharmon
p432
(lp433
V1NqGsghoWMiGezrNyv7Abjoqmf4ftx7an4
p434
aV16H5t2a9vgTS2vRgu3nvmRneQymwV6XjFq
p435
atp436
a(VCriptoCrip
p437
(lp438
V1DdHgUu9mq99GvuS29ZpooaBxB1CLaEgwe
p439
atp440
a(Vgoodbtc
p441
(lp442
V1Enjoy1C4bYBr3tN4sMKxvvJDqG8NkdR4Z
p443
aV1FFirnLctcZxVx5otnLNZ4dDGUkMBM4vNr
p444
aV1NwKxTBrqrfa1YFLB44gyJEj2GanZ2qtDK
p445
aV1SochiWwFFySPjQoi2biVftXn8NRPCSQC
p446
atp447
a(VFeri22
p448
(lp449
V17vuFNsxYsuxvwciXiu8rB6xtCehdQeFWZ
p450
aV1ANDhPKBeYQ2GHUwwHaj88Xu1CXLVmS1p5
p451
aV14qgM72zX4G1vjSsja1MDLFe14aTVpjFAj
p452
aV14qgM72zX4G1vjSsja1MDLFe14aTVpjFAj
p453
aV1G6ErrdEDr4GeaAmv7Dvc7tpgBSp6CDjJJ
p454
aV1G6ErrdEDr4GeaAmv7Dvc7tpgBSp6CDjJJ
p455
aV1G6ErrdEDr4GeaAmv7Dvc7tpgBSp6CDjJJ
p456
atp457
a(Vurveshvasani
p458
(lp459
V15sNZxi1CJxY33tgaoFwKhbMHe2gpRemz2
p460
aV1NyWST8fCGDgg6cnjz7P3jjh8F16Si9VWH
p461
atp462
a(Vblxnmpr
p463
(lp464
V12cq4VnwTtiVwYubkP4qwckVHTjPGjHFts
p465
atp466
a(Vapeg989
p467
(lp468
V194CN5iEpu2L6eSb9DW3F6RunuNixUS41b
p469
atp470
a(VYoungShibe
p471
(lp472
V1LPJWQT2Lc4ffzAXQCGqCfJdFVDbLujW5z
p473
atp474
a(VThrowSway11
p475
(lp476
V1NCrV3mpU8dqe2bX1sxL3eAbU9X5T5B1FZ
p477
atp478
a(VSweetDPhilly
p479
(lp480
V1DN2QL99XNsfCK2TM4tGd48u6ZEAyL3cwx
p481
atp482
a(V247CryptoNews
p483
(lp484
V1BaoTezLSYP6RmSiJbAPL3fJHXSYteVJGz
p485
aV1DSCpHioR5L2Mg26SsSnmqXCrCcuFhkajD
p486
atp487
a(VaL_eX49
p488
(lp489
V1PppKVjqqtXNghuGH2ZCRCxwa8UbX7PFGe
p490
aV13Vp8xBWiiySpbopXaZBekcMNijqEnRwjf
p491
aV1FfBTYvMddXkrHg1spgM4XmMRpsvXoZRhY
p492
atp493
a(VPizzaBuyer
p494
(lp495
V3P2jxfzHTjxvq29P85nGddNKqUkcXfeiYi
p496
aV3P2jxfzHTjxvq29P85nGddNKqUkcXfeiYi
p497
aV3P2jxfzHTjxvq29P85nGddNKqUkcXfeiYi
p498
atp499
a(Vitsjustchuck
p500
(lp501
V1Bap2zxbsTNQbSio8MXy1QqbvVoNn5MrVc
p502
atp503
a(Vi_am_tom_riddle
p504
(lp505
V1MMKsRPXopb7pXSpt7Ne4VT1B8H7RpnJ99
p506
aV126QneminEM3hpTADJXMkQoVLjvBjTeyXT
p507
atp508
a(VAlpharazorOne
p509
(lp510
V173iLSxGY2Ze5aBc4kvafncjq4dHyxd3qP
p511
atp512
a(Vcryptogyan
p513
(lp514
V1KAk3ohEXEDSVPGiR2EkeLN3QU38FHtMmN
p515
atp516
a(Vwillma5
p517
(lp518
V152GGJEWR9dAKdELRnaGRSHWE2GnRJ6FyY
p519
atp520
a(Vdhtmldude
p521
(lp522
V1Pz4WTDy9GWiV4LqL7utr3vkZyqixRv2es
p523
atp524
a(VZachMorris44
p525
(lp526
V14qzdUF5fD9Kkh4zm9kk5eJ58nVt7hi6UP
p527
atp528
a(VWophala
p529
(lp530
V1CounterpartyXXXXXXXXXXXXXXXUWLpVr
p531
aV1111111111111111111114oLvT2
p532
atp533
a(VClorox_Energy_Drink
p534
(lp535
V1EBHA1ckUWzNKN7BMfDwGTx6GKEbADUozX
p536
aV18f1yugoAJuXcHAbsuRVLQC9TezJ6iVRLp
p537
aV14e7XAZbepQp9MXXzjNG3fNLoAUpaBAXHW
p538
aV1PnMfRF2enSZnR6JSexxBHuQnxG8Vo5FVK
p539
aV1KiVwxEuGBYavyKrxkLncJt2pQ5YUUQX7f
p540
aV1DiHDQMPFu4p84rkLn6Majj2LCZZZRQUaa
p541
atp542
a(Vdhtmldude
p543
(lp544
V1Pz4WTDy9GWiV4LqL7utr3vkZyqixRv2es
p545
atp546
a(Vlazyear
p547
(lp548
V12fj5Stp31SrYjtcN9T1jnXPGKUsEF92KD
p549
atp550
a(Vsoytendies
p551
(lp552
V1AxCKHendnZ16NBMbp5bzUcUfub6vX9PTn
p553
atp554
a(Vreflux8
p555
(lp556
V19DAvGg2NgNwNyNqmJ18me8GB1qD5DovE3
p557
atp558
a(Vbitsinabyte
p559
(lp560
V1Laz1SmrkCVHk6qBqW9TUTJ5seTwWhZMuz
p561
atp562
a(VCheesedude666
p563
(lp564
V14zMJH9kbaoL1hqBtSfi276t795qyHDKwi
p565
aV14zMJH9kbaoL1hqBtSfi276t795qyHDKwi
p566
aV14zMJH9kbaoL1hqBtSfi276t795qyHDKwi
p567
aV14zMJH9kbaoL1hqBtSfi276t795qyHDKwi
p568
aV14zMJH9kbaoL1hqBtSfi276t795qyHDKwi
p569
aV14zMJH9kbaoL1hqBtSfi276t795qyHDKwi
p570
aV14zMJH9kbaoL1hqBtSfi276t795qyHDKwi
p571
aV14zMJH9kbaoL1hqBtSfi276t795qyHDKwi
p572
aV14zMJH9kbaoL1hqBtSfi276t795qyHDKwi
p573
atp574
a(Vchipmixer
p575
(lp576
V1Lc7S3ATAq3fJUotjmJ9ey3v9BDSG3AgWw
p577
aV1Lc7S3ATAq3fJUotjmJ9ey3v9BDSG3AgWw
p578
atp579
a(VKoreanBTC
p580
(lp581
V1PqARoGzHhijnMY6j1j6zxZVLcyenPyzWf
p582
atp583
a(Vpcr3
p584
(lp585
V1DyV45JDNWPbsHH9MoeCHfpiDEEaWgi4zY
p586
atp587
a(Vjatsignwork
p588
(lp589
V1Mz7153HMuxXTuR2R1t78mGSdzaAtNbBWX
p590
atp591
a(Vdan897
p592
(lp593
V15wSzv9CgjGxz2vxrKRUUzEajeFccQZ8Ss
p594
atp595
a(VItschtulu
p596
(lp597
V1AtAEzLsSSuSjcjaSW5AzyH7hQaG6y1Dhf
p598
atp599
a(VDanJaay
p600
(lp601
V3MZDhuGDFTc5usWrdWE9rn2MR86TK9HTVM
p602
atp603
a(VBinaryResult
p604
(lp605
V17Q4MX2hmktmpuUKHFuoRmS5MfB5XPbhod
p606
atp607
a(VNeek82
p608
(lp609
V1PfWQ9vkBRdZFGy9kz88oMSKVqin4jK6DH
p610
aV17Sewo2LUShuTm1kGP46ytS3Q4K3FDzqwu
p611
atp612
a(Vthisisforyounow
p613
(lp614
V1LJF53qsjSDCgaWSRcR4ZeofnudfzRxCZy
p615
atp616
a(VMiladran
p617
(lp618
V1MnaKobJzpaCPCmr5i3twKtXKw5vTgXPfE
p619
aV14tFT5q6VEyxKGtuEgi26fGjWsUoijFT5p
p620
atp621
a(Vprivatebravo
p622
(lp623
V1QGYPwNRrBnr7iCvVminWTbx6fKpgQetPx
p624
atp625
a(Vbostrot
p626
(lp627
V1KE6PsUcRaiU1HaL3e3uuxWVjxioRSQ5P8
p628
atp629
a(VNhiyla
p630
(lp631
V1JXQUFPh4QrnDhL7tF5JCvwZMRvn1Esm9r
p632
atp633
a(Vjlcooke
p634
(lp635
V1L75eRMgeCwAxEjD1oWXjLgud9jxwxm34u
p636
aV1L75eRMgeCwAxEjD1oWXjLgud9jxwxm34u
p637
aV1L75eRMgeCwAxEjD1oWXjLgud9jxwxm34u
p638
aV1F4JZYZr4rQhFeJ9P4N9ZL2cHe5cPsbnxw
p639
aV1F4JZYZr4rQhFeJ9P4N9ZL2cHe5cPsbnxw
p640
aV16jY8U2PodHZ79jKkSvjzVYoAjVQTpu6Q8
p641
aV16jY8U2PodHZ79jKkSvjzVYoAjVQTpu6Q8
p642
atp643
a(Vmplacona
p644
(lp645
V1DYfZD8CRtBQQ3kEYb261Q6aywtK6zbZUu
p646
aV14N9ydxNRhDxkKJvXg1vjqS3gh884vG3UM
p647
atp648
a(Vcrrdlx
p649
(lp650
V19rMJGZu3uSRaPapLnzJY6DvR76GfpNPRQ
p651
atp652
a(VSigmundGo
p653
(lp654
V19N1ymPRrnDsiAgaMeRCf288QcwWM1fiR
p655
aV19N1ymPRrnDsiAgaMeRCf288QcwWM1fiR
p656
aV1NUebnpXh3XBVdr68oqdJYyAQEUMw6JJCH
p657
aV1NUebnpXh3XBVdr68oqdJYyAQEUMw6JJCH
p658
atp659
a(Vwise_young_gentleman
p660
(lp661
V12EJ4xuBnXCnNN8PdZyitEn4W5m7o14J66
p662
atp663
a(VPuffycheeses
p664
(lp665
V1DtrjNKwyT1htLVRZikWtUjm6Npg3kk6C9
p666
atp667
a(Vpocketleg
p668
(lp669
V19dMSGr5FKFnM7Evg9a9aksNMqbCR4BCJb
p670
atp671
a(Vsfsilks
p672
(lp673
V1EmBemXapuxrYDgS5PE2FskozKZSnXi2SJ
p674
atp675
a(Vbtc000x
p676
(lp677
V3Boz555aX9ZB674Dv4CPA6VFLhK4zuUnXg
p678
aV3K57Auj87Ct4f4iuWHVNiw6dJrXMQ5qM7r
p679
aV3K57Auj87Ct4f4iuWHVNiw6dJrXMQ5qM7r
p680
atp681
a(Vjohn3298
p682
(lp683
V159cc49944def2b0da4d6c2b60f9e664
p684
atp685
a(VFindingTheBalance2
p686
(lp687
V1KLDzeWLrwM7DLkCGhLUTbDdwaypKyqExd
p688
atp689
a(VMccloudthesparrow
p690
(lp691
V1BrdF8C8DMg7A8oVA6SjMS6GMs8SBPyaDo
p692
atp693
a(Vajapanhit
p694
(lp695
V1GZTP4Y4qzLCcrAwRbtCGZPGETwsYsLbtW
p696
atp697
a(Vwhatsupnigga
p698
(lp699
V1HoRuL1825MRFGGXAV23K4TEK8atP7xeBZ
p700
atp701
a(VKontora
p702
(lp703
V3EhisXwQ6pzXJnPavzpFUHpbWDcQEpCgfb
p704
atp705
a(Vgrimeypigeon
p706
(lp707
V16thX2TYXpqA69fhsja3fdUQ3EuubGAPg9
p708
atp709
a(V_Mido
p710
(lp711
V15tYFmUV6wG4e1Gbi1buxBM9zSQzcWSkiK
p712
atp713
a(Vtheochino
p714
(lp715
V32TkdtErKNZKcccNcFynRRCG6WAoY1ofj9
p716
atp717
a(Vn1kof
p718
(lp719
V1GMxKSPa8poGjJ4xYczXnpvfxJTAJyk5cg
p720
atp721
a(Vn1kof
p722
(lp723
V15k5EApAtbWwBXpVyaurgduxhYyHYKqokV
p724
atp725
a(Vjacksparrow008
p726
(lp727
V1KwAn4fvPhxw7tNQ8Akc4Vp8UUVRgS7mCE
p728
atp729
a(VReloot
p730
(lp731
V12DqFX1xLjvukzcT4JTdJz3cBdRuNNeRFQ
p732
atp733
a(Vrya_nc
p734
(lp735
V3DkVqK1rUPZuj8EnPAbKmJ3A8xuZeTseeW
p736
aV3DkVqK1rUPZuj8EnPAbKmJ3A8xuZeTseeW
p737
atp738
a(VSurfinite
p739
(lp740
V1MqrY69iy8KAz9LzJqc7L8Ebpa7K82Qbk5
p741
atp742
a(Vgren17
p743
(lp744
V1NveJpEbuVjTkARDZHkGLycQQmzGG76djB
p745
aV194ZkFumhSVXxYXTyvwqLMvMT1VR887dHV
p746
atp747
a(VCheesedude666
p748
(lp749
V14zMJH9kbaoL1hqBtSfi276t795qyHDKwi
p750
aV14zMJH9kbaoL1hqBtSfi276t795qyHDKwi
p751
aV14zMJH9kbaoL1hqBtSfi276t795qyHDKwi
p752
aV14zMJH9kbaoL1hqBtSfi276t795qyHDKwi
p753
aV14zMJH9kbaoL1hqBtSfi276t795qyHDKwi
p754
aV14zMJH9kbaoL1hqBtSfi276t795qyHDKwi
p755
aV14zMJH9kbaoL1hqBtSfi276t795qyHDKwi
p756
aV14zMJH9kbaoL1hqBtSfi276t795qyHDKwi
p757
aV14zMJH9kbaoL1hqBtSfi276t795qyHDKwi
p758
atp759
a(Vhippophobe
p760
(lp761
V1A1zP1eP5QGefi2DMPTfTL5SLmv7DivfNa
p762
aV1A1zP1eP5QGefi2DMPTfTL5SLmv7DivfNa
p763
atp764
a(Vbilionbitcoins
p765
(lp766
V39nqXiBaruN6qxuk4hyuV1mbX8JZy2AXWk
p767
atp768
a(Vwendelrj
p769
(lp770
V3ASR4WyTUj27XFMpqjs5Akntrr27Kapppk
p771
atp772
a(VReviken
p773
(lp774
V1AXS9aMPNk6PWMSSk8fDAvwxbqatDw6jkr
p775
atp776
a(VZathodian
p777
(lp778
V1Kf5GPShe7D37h4VziPYNJjEeLGqUiSPBt
p779
atp780
a(Vaztecsilver
p781
(lp782
V14agZQqD9sLDpVyUHt9oHNukw7R31tiDKB
p783
atp784
a(Vjk9988
p785
(lp786
V3CLUqhBASDAttQSfkxP4dtDX8faE4Q1orJ
p787
atp788
a(Vdodgethem
p789
(lp790
V1P3YnD1QVDfmdwQLxAbxwreVHxjQipoDyn
p791
atp792
a(Vkapookah
p793
(lp794
V37cYoermod7KrZUQ52EMdPzKb61Kt6GmqP
p795
atp796
a(Vgivemepsy
p797
(lp798
V1Pwe8kXTPReZ1qQmQJ65hn3YFmtD9suRte
p799
atp800
a(VZiggy08036
p801
(lp802
V1EmG8dtLeQ14hCZpp8Eomzh27vSZnhqRg8
p803
aV1EmG8dtLeQ14hCZpp8Eomzh27vSZnhqRg8
p804
atp805
a(VArxi
p806
(lp807
V1Q6yk1YJhmkdL5PSvssPng9tEneGZJ8d8y
p808
aV15faHU4T6QqmJhP1s7AZwRFoTwndvVZWfw
p809
atp810
a(Vskattyman14
p811
(lp812
V1NE8GanXStU8wQXK2cWqQ2ShVthGafFyVz
p813
atp814
a(VJDTexarkana
p815
(lp816
V3FSSriAtPUGmyN7sFBebntq6PTiNFUJTdj
p817
atp818
a(Vtheartlav
p819
(lp820
V1NS17iag9jJgTHD1VXjvLCEnZuQ3rJDE9L
p821
aV1NS17iag9jJgTHD1VXjvLCEnZuQ3rJED9L
p822
atp823
a(Vstupidyesiam
p824
(lp825
V3EyWFmBtfNExSkTV3qyAF8Wcik9FxkVQYa
p826
atp827
a(VSKiliman
p828
(lp829
V1BFEFnEtUfVvNHQ92cNEW3ZfynM58G183h
p830
atp831
a(Viuqerfsodp9ifjaposdf
p832
(lp833
V183yPBB3fMw5qwdYa7yp5L7xLEXTq6KsF5
p834
aV1LrWVWfaYypyXALw3tAvisevZoEKPHMm75
p835
aV1PB4xXUFyy4kSNqroCBVaQuCuw9VcN3be4
p836
atp837
a(Vbtcsa
p838
(lp839
V1FNviVh1jG7cx91oxdn4ApgtBsW7Gictab
p840
atp841
a(Vhkopman
p842
(lp843
V17ar9duUGZneeRJummP4aRwL2J2ZgzUKUS
p844
aV19CJYpf96kTqtkeUSdobbaJbvXyTrToHWV
p845
aV1KDCasHMhDkLppp1fGSHNH95yb9We9jy1n
p846
atp847
a(VAmichateur
p848
(lp849
V1AEbhwgdx5kfKycdSBFANJEvpAZ2WrDjG8
p850
atp851
a(VBoneyg001
p852
(lp853
V114oTCwiukPBmYRBDpNhht17E1TPJEHLbv
p854
atp855
a(Vgurb-it
p856
(lp857
V129Ls1oFCBXdMjBXP4ZAgeC3H6CuPgtGkB
p858
atp859
a(Vthamerphpmaster
p860
(lp861
V1BS3caAYJH5LTKprkbvhkSLVUhpa9QsvMp
p862
aV1BS3caAYJH5LTKprkbvhkSLVUhpa9QsvMp
p863
atp864
a(VBurgsFresh
p865
(lp866
V1F4EUFXGRkNpSTheJe2gABnHuF2ZTDkbD
p867
atp868
a(Vthe_bob
p869
(lp870
V1491KpNqoY1vGE2Rzdd76BCsuXK7QepNGU
p871
atp872
a(VOdiacresU
p873
(lp874
V19G9ARPs4kCecvVRxt8FWT9BMy5dGHHxSQ
p875
atp876
a(Vcoinagecrypt
p877
(lp878
V1GT3jyewVbxfoSBHdEGfNHMnE7kmY7qYCc
p879
aV1GT3jyewVbxfoSBHdEGfNHMnE7kmY7qYCc
p880
atp881
a(Vstephend9
p882
(lp883
V1JBFtXSEeVnTdo5XKri9qXrhtrjnevq66x
p884
atp885
a(Veminogrande
p886
(lp887
V17TpYUYpcxHwM7mCwoqoc1Eb7V5fPBtoK2
p888
atp889
a(Vkralleo
p890
(lp891
V1DGXFjWuSSM5ybwFWkuBrBkSK8D4gj2DmH
p892
atp893
a(V105kgSysAdmin
p894
(lp895
V1B2siSMFKVKeVcnGzXuDuqmougmWS4mCow
p896
atp897
a(Vskabaw
p898
(lp899
V1FRKmPBqBymnZA3i7muS2YPwdrTbkF4EcY
p900
atp901
a(Vlordmethh
p902
(lp903
V16YPVrfNemAk2TiK1TXQMbqE3SEb1GAa5e
p904
atp905
a(V_Citizen_Erased_
p906
(lp907
V115p7UMMngoj1pMvkpHijcRdfJNXj6LrLn
p908
aV12t9YDPgwueZ9NyMgw519p7AA8isjr6SMw
p909
aV1QAc9S5EmycqjzzWDc1yiWzr9jJLC8sLiY
p910
aV115p7UMMngoj1pMvkpHijcRdfJNXj6LrLn
p911
aV13AM4VW2dhxYgXeQepoHkHSQuy6NgaEb94
p912
aV15zGqZCTcys6eCjDkE3DypCjXi6QWRV6V1
p913
atp914
a(V_willish
p915
(lp916
V12t9YDPgwueZ9NyMgw519p7AA8isjr6SMw
p917
aV115p7UMMngoj1pMvkpHijcRdfJNXj6LrLn
p918
aV13AM4VW2dhxYgXeQepoHkHSQuy6NgaEb94
p919
atp920
a(Vdarkvador1900
p921
(lp922
V1PQJC7wN5PbenKHmTbqRbdQYbvmPUar9Hm
p923
atp924
a(VFerriestaPatronum
p925
(lp926
V115p7UMMngojfpMvkpHijcRdfJNXj6LrLn
p927
aV115p7UMMngoj1pMvkpHijcRdfJNXj6LrLn
p928
atp929
a(VRoux85
p930
(lp931
V169kCEKrBvfWrsuuVbUyD3Aaf8FeUd6nZf
p932
atp933
a(VSuaveMariMagno
p934
(lp935
V13AM4VW2dhxYgXeQepoHkHSQuy6NgaEb94
p936
aV12t9YDPgwueZ9NyMgw519p7AA8isjr6SMw
p937
aV115p7UMMngoj1pMvkpHijcRdfJNXj6LrLn
p938
atp939
a(Vburtonash
p940
(lp941
V115p7UMMngoj1pMvkpHijcRdfJNXj6LrLn
p942
aV12t9YDPgwueZ9NyMgw519p7AA8isjr6SMw
p943
aV13AM4VW2dhxYgXeQepoHkHSQuy6NgaEb94
p944
atp945
a(VTOCICI
p946
(lp947
V13SNqhQJx6NHYhuoAyZFfoWCSvaDszDLo7
p948
atp949
a(Vkingofvodka
p950
(lp951
V33aJgsFT1zzVGx1dpudF2gNaCiS6VKju55
p952
atp953
a(Vroyalecraig
p954
(lp955
V1BtLK6bmVBhXYHyuZsHLoUaLGUE82Mw4TA
p956
atp957
a(Vaddrstore
p958
(lp959
V1DonationLd73pZbX3fAitt4JZv5kdrZEt
p960
atp961
a(VSaltedSouto
p962
(lp963
V1bd89f1a677f4b0632f3cb4cfbcc07f5
p964
atp965
a(Vcript0currency
p966
(lp967
V1K2SXgApmo9uZoyahvsbSanpVWbzZWVVMF
p968
atp969
a(Vaadfg
p970
(lp971
V12jEeJgSHNhE4b1F7Z3G9qUYAaXraHEWTw
p972
atp973
a(VVanklow
p974
(lp975
V16aZSyKrWs8CAkw1HCw7buubeEGsjF4eAi
p976
atp977
a(VGothamDota
p978
(lp979
V155wwYNE8hh1iFWf4kjKjFgZhpoWtg69ZR
p980
atp981
a(Vappt454
p982
(lp983
V3PcuXfbC4PE4WKWsH54jAPZq35y1R4f1Bi
p984
aV3PcuXfbC4PE4WKWsH54jAPZq35y1R4f1Bi
p985
aV3PcuXfbC4PE4WKWsH54jAPZq35y1R4f1Bi
p986
aV3PcuXfbC4PE4WKWsH54jAPZq35y1R4f1Bi
p987
atp988
a(VdCodePonerology
p989
(lp990
V3QQB6AWxaga6wTs6Xwq8FYppgrGinGu15f
p991
aV3QQB6AWxaga6wTs6Xwq8FYppgrGinGu15f
p992
aV3QQB6AWxaga6wTs6Xwq8FYppgrGinGu15f
p993
atp994
a(Vluke-jr
p995
(lp996
V333479252069bf6a6711046e6731d730
p997
atp998
a(Vgridchain
p999
(lp1000
V16a2pR6UDyeqv1ArQ8hGXJgqVCWfoqbdUr
p1001
aV17MtkE39Ms9gcZBdAWS6QQCyd7qrKdVdzo
p1002
aV1KNgyBny6S5sA9fxU8QJC3bLFHdDAKAabU
p1003
aV12RrvE59LUgcRdgE5W4iPpjcr66GtW6YgV
p1004
aV1EMChJbxPW7vTLyaTh3TBVMm9i8BUPFA1i
p1005
atp1006
a(VCreative310
p1007
(lp1008
V197QzcP7jBEmRzo1An97PZxFEbFEiy1xbd
p1009
atp1010
a(Vspacetime2
p1011
(lp1012
V3JNQQ4VhtwJwAUEVLK53ReioD1kS7AEjuk
p1013
atp1014
a(Vcaveatemptor25
p1015
(lp1016
V155fzsEBHy9Ri2bMQ8uuuR3tv1YzcDywd4
p1017
atp1018
a(Viikes12
p1019
(lp1020
V1BJrdX1kJTG1JqynkfoRGAPMCV8ze3ThMR
p1021
atp1022
a(VAjm6753
p1023
(lp1024
V1CSsDhNpKiQageRn927bt6zf2amc5TtoMF
p1025
atp1026
a(VBTGoner2017
p1027
(lp1028
V1HnG71E2ttShqM7ei8AY6t7CzK2xebE7Wi
p1029
atp1030
a(VElectric_Falcon
p1031
(lp1032
V1GvzBKEVyMnx8pnagC2FjujmcDp1mEXVyM
p1033
atp1034
a(Vohsnapitsjaycee
p1035
(lp1036
V1CwZSnnKTAwsLh9ot7ABWPonxDo7zW4FXE
p1037
atp1038
a(Vflat5
p1039
(lp1040
V19FkmhHEzgCXKfALXhahuCTDVcRnxT41MK
p1041
atp1042
a(VKarmaa
p1043
(lp1044
V12341234123412341234123412341234
p1045
atp1046
a(Vjimmywales1
p1047
(lp1048
V18FXM5GxSAPtEHK5cXtZhW957vwxReg5sJ
p1049
atp1050
a(VProudCakeOwner
p1051
(lp1052
V1LvevETn7BLSsHkYbUXMBVmACAQ1eDYR6m
p1053
aV1PRMRqvqqTR5rEvEnGrF9F3XVYzJLADEmw
p1054
aV1JcEMLcCQHkeNcxxPfM99LzC5bSuGWksmj
p1055
atp1056
a(VEmperorCuntCrusher
p1057
(lp1058
V1MPgCr9vWQNWHecRjYdCZ4rShD6mUgBSvD
p1059
atp1060
a(VFlunnel
p1061
(lp1062
V1GuRjB13aLSrW78eWVVVohtJc3SXqdQGyo
p1063
atp1064
a(VKasukoi
p1065
(lp1066
V181BY1m83Lj8PStELx3YdsKNZMZmfp6Wtg
p1067
atp1068
a(Vscientized
p1069
(lp1070
V16UwLL9Risc3QfPqBUvKofHmBQ7wMtjvM
p1071
atp1072
a(VFieryXJoe
p1073
(lp1074
V1J4KN1xF3jB9QiNpVtFg7AQtbD71h1kNbX
p1075
atp1076
a(Vbubshoe
p1077
(lp1078
V1F1tAaz5x1HUXrCNLbtMDqcw6o5GNn4xqX
p1079
atp1080
a(VGr1mz13
p1081
(lp1082
V1NQFwEGBb43zCEKnqNJ5sg9zq4RRsakD1e
p1083
aV1NQFwEGBb43zCEKnqNJ5sg9zq4RRsakD1e
p1084
aV1NQFwEGBb43zCEKnqNJ5sg9zq4RRsakD1e
p1085
atp1086
a(VGr1mz13
p1087
(lp1088
V1NQFwEGBb43zCEKnqNJ5sg9zq4RRsakD1e
p1089
aV1NQFwEGBb43zCEKnqNJ5sg9zq4RRsakD1e
p1090
aV1NQFwEGBb43zCEKnqNJ5sg9zq4RRsakD1e
p1091
atp1092
a(Vsaalda
p1093
(lp1094
V342YAKXKrBVoK6JCvc3hVy1t7XE38JBSyT
p1095
atp1096
a(Vzysr90
p1097
(lp1098
V1Ci2XgF9vbuj2MMt26KtgxSQg9wUFdUMWh
p1099
atp1100
a(VRHavar
p1101
(lp1102
V38fDdi6VRdLBj78iFgJTSgautnPqkyYZd2
p1103
aV17yCiAc3sj1odwSH8ads24DykG789xDWJy
p1104
atp1105
a(VAltF
p1106
(lp1107
V1bitcoineateraddressdontsendf59kue
p1108
aV1bitcoineateraddressdontsendf59kue
p1109
atp1110
a(VDabaDUda
p1111
(lp1112
V17k2WwCDwoAjCAy2FEGEYHgRx3NaEptdGi
p1113
atp1114
a(VCryptolution
p1115
(lp1116
V18eXmgR5Svoqqa6PaYVrKvbH6hvrp5xe3A
p1117
aV18eXmgR5Svoqqa6JXSMmbNaD4Cs5ThcV1P
p1118
atp1119
a(Vspacejames
p1120
(lp1121
V1AoByJUUMbFx8Jg434urb2dcqo1DZugwQw
p1122
atp1123
a(VCONNECT-im
p1124
(lp1125
V18187F2AvfMRe9SrWL52z3PRqGzoEa75EF
p1126
atp1127
a(Vsoloq11
p1128
(lp1129
V3EqJm7otePLhYcB9KVNv31gJKvTXjk4E9g
p1130
atp1131
a(Veffortlesslykanye
p1132
(lp1133
V16a6ctXdjuNQ1S3yKSVZSD5nVSPNZJJjxW
p1134
atp1135
a(Vcontractmine
p1136
(lp1137
V1AN4pDgC9YoLDdYwtmtuSk9hiW6K6cKj8J
p1138
atp1139
a(Vitworks123
p1140
(lp1141
V1F78bRJA23aHbk4pFjLp9wXVMLkzmYVZMy
p1142
atp1143
a(VBinaryResult
p1144
(lp1145
V17Q4MX2hmktmpuUKHFuoRmS5MfB5XPbhod
p1146
atp1147
a(VnononononBTC
p1148
(lp1149
V1FqKi2QLMZnLUKeuwxUJJoZS5vwEgNkRWN
p1150
atp1151
a(V0-zer-0
p1152
(lp1153
V1Ecd9eHdTwspG5YpRpXoLfGAhGjEGVySr1
p1154
aV1AKjQCDsYBesGE1V7UGdGadbRop41py1ch
p1155
atp1156
a(Vdavetheraver69
p1157
(lp1158
V1evYfF3ygmCGgS5ynpRJrPbE9H1TCjzpv
p1159
aV379cDpamgMaS4BYtiHF6FP5JA6LVmvM9AU
p1160
aV379cDpamgMaS4BYtiHF6FP5JA6LVmvM9AU
p1161
aV379cDpamgMaS4BYtiHF6FP5JA6LVmvM9AU
p1162
aV379cDpamgMaS4BYtiHF6FP5JA6LVmvM9AU
p1163
atp1164
a(Vbtc_broker
p1165
(lp1166
V19Mz2o9RDABT74SA9njZqMtJXKEzj2qUoH
p1167
atp1168
a(VAnthrax809
p1169
(lp1170
V1NY11d2EiFvxWmExwv6iPR8pGjZewhnW2o
p1171
atp1172
a(Vimdumbandlostbtc
p1173
(lp1174
V14E9emSpC1uwaJr6jr5LJyxe1YNu1S4g2F
p1175
atp1176
a(VI-am-the-noob
p1177
(lp1178
V19656Uwdwko5RjtnuwQENpjBwE3ChzD59v
p1179
aV19656Uwdwko5RjtnuwQENpjBwE3ChzD59v
p1180
atp1181
a(Vdigitalmediaspecial
p1182
(lp1183
V15wPfFqkBYSeTEn62KK6dJVECWFjxF98Z1
p1184
aV16firc3qZU97D1pWkyL6ZYwPX5UVnWc82V
p1185
aV16firc3qZU97D1pWkyL6ZYwPX5UVnWc82V
p1186
atp1187
a(Vpimpingken
p1188
(lp1189
V16GP7fynpDwZ5oJzxoaBgSznPXqffNpNdt
p1190
atp1191
a(VLarry4life
p1192
(lp1193
V1FvNZ2VZ6pT3HkGqcTNHEdse679amGndMA
p1194
atp1195
a(Vssg691
p1196
(lp1197
V15AxG8xoxP8AsFmBVtxE1ijz7cNS5AL52u
p1198
aV15AxG8xoxP8AsFmBVtxE1ijz7cNS5AL52u
p1199
aV1JKFiPLzW23ZKJ6FsvTsrCc9W91skzTp8n
p1200
atp1201
a(Ventropyjs
p1202
(lp1203
V14jwn3d3Nsyiw9oxJFNU8f4hxwPX7cMDE3
p1204
atp1205
a(Vspacetime2
p1206
(lp1207
V3JNQQ4VhtwJwAUEVLK53ReioD1kS7AEjuk
p1208
atp1209
a(VUKcoin
p1210
(lp1211
V3QQB6AWxaga6wTs6Xwq8FYppgrGinGu15f
p1212
atp1213
a(Vasilv342
p1214
(lp1215
V19LYUf4NSvmAq5ZbJKTAHWYbMFz4uj2AYf
p1216
aV1E1vDcXnYEnhP8jaJWbSnLDThEM5rmXLFn
p1217
aV19LYUf4NSvmAq5ZbJKTAHWYbMFz4uj2AYf
p1218
atp1219
a(Veddy159357
p1220
(lp1221
V18tAb3QFFBFxjRt8t29RcnJ1W23XiXFvuu
p1222
atp1223
a(Vralfciff
p1224
(lp1225
V1Joi5du8txRbxTRKXSVQ28fhd9GsdgLKiz
p1226
atp1227
a(VJwin970
p1228
(lp1229
V1NAL7DxbVwrYU81j5r6M6RvnBb2gZNq8kA
p1230
aV36qnrTPHRo4TjM3u7wjPQPyDvjAkx3Pkj2
p1231
aV1GMh491B9XQqfyhUwXMRuG7qTP2m5efLB
p1232
aV1LNEMb1Aajp1fKK2yCZ3N6ckDYmegK1d3s
p1233
aV1NAL7DxbVwrYU81j5r6M6RvnBb2gZNq8kA
p1234
atp1235
a(Vpangaea67
p1236
(lp1237
V1K8TKc2P7FKfM5ZL7i7gTAPYSNW1994B8J
p1238
atp1239
a(VHotwir3
p1240
(lp1241
V1KFvnSS2aE2uZpqJ8UEDYxZkc7mRC7SecV
p1242
atp1243
a(VNiemiV
p1244
(lp1245
V1FpEL7U1BVwnKNQevLgRr8avnRbamuZmTf
p1246
atp1247
a(VToFishNChips
p1248
(lp1249
V1L4pjHFrdfDjmdV1vnJYXXjKhuPJnPd9h3
p1250
atp1251
a(Vgsosoft
p1252
(lp1253
V19ybSHessD9zUM3NSgjpa7prTbqYJ177oS
p1254
atp1255
a(VSrPeixinho
p1256
(lp1257
V3562f867843a480ec551ad1a19fe5025
p1258
atp1259
a(Vanacoinda
p1260
(lp1261
V1MGaUVjgPxH4bk1kc724iEsQ2CEh6ut6eE
p1262
atp1263
a(Vmaaku7
p1264
(lp1265
V35Snmmy3uhaer2gTboc81ayCip4m9DT4ko
p1266
atp1267
a(Vchek2fire
p1268
(lp1269
V15tYFmUV6wG4e1Gbi1buxBM9zSQzcWSkiK
p1270
atp1271
a(Vemsiak
p1272
(lp1273
V1AsPzC53491jKTvwrUEZnvF6cgtXDWD8mX
p1274
aV1AsPzC53491jKTvwrUEZnvF6cgtXDWD8mX
p1275
aV1AsPzC53491jKTvwrUEZnvF6cgtXDWD8mX
p1276
aV1Dcu2y3eefKRVkJY7JSJeaouRyEnBYaWJt
p1277
aV1N7afkxPv9b4CRaTwecqwHisRH7yMUPQvF
p1278
atp1279
a(Vcorey_phillips
p1280
(lp1281
V19kmWyHLk3gNi9ZGewHbWncTHH9xjr9xjR
p1282
atp1283
a(Vscheistermeister
p1284
(lp1285
V1EXeqJsJz9HZMSS5ELaGZQfmGmesHG99Zf
p1286
aV1ER1RXn8v5ao7nt4EPRH7oL328m9poocrS
p1287
atp1288
a(Vbiukuw2
p1289
(lp1290
V1H53G3ucEnfoCjresBSS6JEYojue17NBqN
p1291
atp1292
a(Vblock2676
p1293
(lp1294
V1BEAp84rY4U2MJNmUkaF9BNavTEEG3ZSfd
p1295
atp1296
a(VMordan
p1297
(lp1298
V1LMkCurz7sWnue87BbWo8JH2xC8RjTXoDP
p1299
atp1300
a(Vapokerplayer123
p1301
(lp1302
V12zLZ3VvNLom3RH2eRLTj1sQxYANzzxLkL
p1303
atp1304
a(VBlockchainfuckedme
p1305
(lp1306
V12HarwPfx39Q9LhA7xvQTe2dTQJrPPo1ax
p1307
atp1308
a(Vin3rsha
p1309
(lp1310
V1AYtnRppWM7tWQaVLpm7TvcHKrjKxgCRvX
p1311
aV1KLahQtqDNAXvrjNyfvgSBtAhwco5ZxLp4
p1312
atp1313
a(Vphor2zero
p1314
(lp1315
V1LyJVW4E7yDF2MWzf3brb92Q5TGeeQxMpm
p1316
atp1317
a(Vgoodjob_goodeffort
p1318
(lp1319
V1CNSRnGNcJqcgcmkYWSBALPFwR9NY1Eg8F
p1320
atp1321
a(VKinolva
p1322
(lp1323
V1FeexV6bAHb8ybZjqQMjJrcCrHGW9sb6uF
p1324
atp1325
a(VHuXu7
p1326
(lp1327
V17TZNT8CBPzUPDfKTXC25RQHrW6M2q6kRo
p1328
aV1E7omVoKbNPmDfFxPfZkAotQ65dFRsNX9y
p1329
atp1330
a(VCL0N
p1331
(lp1332
V1LoMm18jjjWCu3rhkZAJVzToPyY16hr2yX
p1333
atp1334
a(Vfoxh8er
p1335
(lp1336
V1GQmweAj7Lqwzs4eD8u6DjGA8da2kaG93S
p1337
atp1338
a(VxxDan_Evansxx
p1339
(lp1340
V1JGfXtMAyuNCXuvnmPXctKP2AG9aPME79N
p1341
atp1342
a(Vjohnhardy-seebitcoin
p1343
(lp1344
V1CLNgjuu8s51umTA76Zi8v6EdvDp8q
p1345
aV1N62SRhBioRFrigS5eJ8kR1WYcfcYr
p1346
atp1347
a(Vbitcoinnooblol
p1348
(lp1349
V1CnMjE3gcR5784hW61FNWyseSmHA27F4yT
p1350
atp1351
a(Vpk_ing
p1352
(lp1353
V36973ebac0b44b6ba60eabeb090f3ac2
p1354
atp1355
a(Vpistolpete0406
p1356
(lp1357
V1GLHVUjk6VA82kHJomNuanpTYKAg3QPEk4
p1358
atp1359
a(VAmmeyroger1
p1360
(lp1361
V14kQfsxstFMjhL1RJAngoiEU13BaVUVjbS
p1362
atp1363
a(Vjonstern
p1364
(lp1365
V1J37CY8hcdUXQ1KfBhMCsUVafa8XjDsdCn
p1366
atp1367
a(V58iwh8_throwaway
p1368
(lp1369
V19Pah5q5orPfsq3UHZWhSaDiuUd7KYq5oL
p1370
aV14hpDFgd7shepaxdEouQCso4btV4ZMw2Ah
p1371
atp1372
a(Vrosenjcb
p1373
(lp1374
V1Es85m7Jrimw2zCs49yRRVfgAeB48mQFxm
p1375
atp1376
a(Vbitcointhrowawayy11
p1377
(lp1378
V3BZH7nnMqtYZjq6QTbikQBo8JrXsMhssy5
p1379
atp1380
a(VRbitco
p1381
(lp1382
V1Fof22qZHhCXqQFP2ETjLDjM35GqxJLSbj
p1383
atp1384
a(Vdivertic2
p1385
(lp1386
V1Dota5xn6h7w6H7GjRMguW4omYvWEdJ7Z5
p1387
atp1388
a(Vmoneystolenbtc
p1389
(lp1390
V1LDaBuUgUgNGDuensc96vXAtvvb8iijhoJ
p1391
aV1LDaBuUgUgNGDuensc96vXAtvvb8iijhoJ
p1392
aV155M7TvBRww6WFdtGQgTYUH8DuLheNafCf
p1393
aV155M7TvBRww6WFdtGQgTYUH8DuLheNafCf
p1394
atp1395
a(VaUniqueUsernamelolol
p1396
(lp1397
V19Cm3ddKvZP11yKVAs59ux5q2xWK4L6mqd
p1398
atp1399
a(VRedditnewbie2017
p1400
(lp1401
V1G87XEswmc7XbVwW4Z6JnLhM3HZVRpBSnP
p1402
atp1403
a(VKinolva
p1404
(lp1405
V1HQ3Go3ggs8pFnXuHVHRytPCq5fGG8Hbhx
p1406
aV1HQ3Go3ggs8pFnXuHVHRytPCq5fGG8Hbhx
p1407
aV18rnfoQgGo1HqvVQaAN4QnxjYE7Sez9eca
p1408
aV18rnfoQgGo1HqvVQaAN4QnxjYE7Sez9eca
p1409
atp1410
a(Vexab
p1411
(lp1412
V185d31BYiTFnywYG9AYNdKKRw6p7rEBRyD
p1413
aV185d31BYiTFnywYG9AYNdKKRw6p7rEBRyD
p1414
atp1415
a(VOto-bahn
p1416
(lp1417
V1GrLCmVQXoyJXaPJQdqssNqwxvha1eUo2E
p1418
atp1419
a(VTheSilentArt
p1420
(lp1421
V1Mc3L9a37sWckhuj5hHGnzca5tyKDNa9bV
p1422
atp1423
a(VTheCasualBob
p1424
(lp1425
V1CjgxoLqgMFJNjv9arxTq6k2movnEvDpJ4
p1426
atp1427
a(Vtheolangsnoer
p1428
(lp1429
V1Btc2UrZTqcbjLrr8trx66K9TozQmKeDGN
p1430
atp1431
a(VRiiume
p1432
(lp1433
V1FeDtFhARLxjKUPPkQqEBL78tisenc9znS
p1434
aV1FeDtFhARLxjKUPPkQqEBL78tisenc9znS
p1435
atp1436
a(Vsmashingdumplings
p1437
(lp1438
V1tktdwdLQEMXpJRxxxxxxSSoi48d4wQA
p1439
atp1440
a(Vbitbro321
p1441
(lp1442
V37p9pUugydmoLpQyFLLqGAgjWmUFERa1Pq
p1443
aV37p9pUugydmoLpQyFLLqGAgjWmUFERa1Pq
p1444
atp1445
a(Vwarrenofauburn
p1446
(lp1447
V3MqZXbGd3PVF5pVhywpSR8MiBadZsCp5a9
p1448
aV1A1zP1eP5QGefi2DMPTfTL5SLmv7DivfNa
p1449
atp1450
a(Vduosearch
p1451
(lp1452
V14aSw8HinPL4fwBTeQKqHXTtKuaQqiGX7S
p1453
aV14aSw8HinPL4fwBTeQKqHXTtKuaQqiGX7S
p1454
atp1455
a(Vbusterroni
p1456
(lp1457
V1A1zP1eP5QGefi2DMPTfTL5SLmv7DivfNa
p1458
aV1A1zP1eP5QGefi2DMPTfTL5SLmv7DivfNa
p1459
atp1460
a(VProfBitcoin
p1461
(lp1462
V1pHanQr5TRuUXajQ87fzHm2u8mMs9L
p1463
atp1464
a(Vslobambusar
p1465
(lp1466
V1PwmvmwyyNHpibn2PTKpZEo6yxZ7L44Hk
p1467
aV1PwmvmwyyNHpibn2PTKpZEo6yxZ7L44Hk
p1468
atp1469
a(Vblueeyedgenie
p1470
(lp1471
V12pg2X5NjvNJREuFm6yPigijnUWVzGwLhQ
p1472
aV12pg2X5NjvNJREuFm6yPigijnUWVzGwLhQ
p1473
atp1474
a(Vchriswaalberg
p1475
(lp1476
V1CETEBHigZg6gCNePgbhQjxvW6C9Kn7n6r
p1477
aV1LpAU2mcW5TdDNnYNvKeGAVhU6S2haVAhR
p1478
atp1479
a(VaUniqueUsernamelolol
p1480
(lp1481
V1BP1dDUrY3SziKWVy5SYTQnkXEFAC9Exvw
p1482
atp1483
a(VAdekolapeters
p1484
(lp1485
V16TupY8sfdf8heuui16eEe2v9qJ2FjJPqZ
p1486
aV19U9f9VRhC4eeaPTGgzmQeT7fHBXgrXKQG
p1487
atp1488
a(VBencwb
p1489
(lp1490
V346Qm93BkbCXyNJPuLng4ULgX8XSdjMhhY
p1491
atp1492
a(VModernLifeDating
p1493
(lp1494
V1PK9FzjcUxCydZFDcFpQyURTLWPHYbA6Bf
p1495
atp1496
a(Vkhon24
p1497
(lp1498
V1CxcWH642SXb658hcvsCmxq5BDm2QHNzEN
p1499
aV1CxcWH642SXb658hcvsCmxq5BDm2QHNzEN
p1500
atp1501
a(Vloserkids
p1502
(lp1503
V1BitcLU5zc39RwUS46bnfTcNcFeACyXjVM
p1504
atp1505
a(VPh03n1xII
p1506
(lp1507
V1d0e4623675d435c83c1e2bd6cb82b1b
p1508
atp1509
a(Vbitcoininoz
p1510
(lp1511
V1J92yXGaEq9qzfJpikdjwDTmB726fcjgT5
p1512
atp1513
a(Vmnsx37
p1514
(lp1515
V3QzYvaRFY6bakFBW4YBRrzmwzTnfZcaA6E
p1516
atp1517
a(Valexcooool
p1518
(lp1519
V1KKRE7oC7BroawnciVGJZPpqNX4VWjKKo1
p1520
atp1521
a(Vbilbo_james
p1522
(lp1523
V1LSqksKgmUh1TDMoAxLAQSNcwnfgkzCRP6
p1524
aV1LSqksKgmUh1TDMoAxLAQSNcwnfgkzCRP6
p1525
atp1526
a(Vbitaps
p1527
(lp1528
V14aT7ELki1pVWtryd5brMGqsFySWgjy8je
p1529
atp1530
a(VWaterboy550
p1531
(lp1532
V1CqmjgYj46vRqBxFvbt5WsqMudRShhGKmD
p1533
aV1NNcPWKhowH7QhKDAjRYrdBFVbAHoDDcCe
p1534
aV1CqmjgYj46vRqBxFvbt5WsqMudRShhGKmD
p1535
aV16D1XkRHunUgSfuPDQZSPG42cAicTbSmzu
p1536
aV1qjThyMzMrpy3m1esvXF32o3MHVixnxnA
p1537
atp1538
a(Vasoltys
p1539
(lp1540
V1CatXmMAiPKC5uk9UsUjQmFQV4wvGwqAmh
p1541
aV159jZgMH8yGvMPoi3Nz82BLrUsyzSXnG9q
p1542
atp1543
a(Vloose5-9BTC
p1544
(lp1545
V1JL8K1Bh1EQpBUk41WBPvdjwn5vbjp55bv
p1546
atp1547
a(Vdrei4u
p1548
(lp1549
V135zDqhbNcmPk3gbyeJmH75yiLdVZechsK
p1550
atp1551
a(Vkinoshitajona
p1552
(lp1553
V1Ek9S3QNnutPV7GhtzR8Lr8yKPhxnUP8iw
p1554
aV36ghjA1KSAB1jDYD2RdiexEcY7r6XjmDQk
p1555
atp1556
a(VJif_Fan
p1557
(lp1558
V3F51C1DLNU5hxhimKVZ7T89omSR9YDoXAn
p1559
atp1560
a(VCosmosKing98
p1561
(lp1562
V18xQ8GZ5HBGwDoDf6UMMHGhZoHvGvvvjfq
p1563
atp1564
a(Vbazzip
p1565
(lp1566
V191mDqLbQEXGHKv1VmnnNQ8aEC3ayAPh9p
p1567
atp1568
a(Vallyougottado
p1569
(lp1570
V19hNEoHRGb2wDpxWGgDEDwaoHdEfKjZwWx
p1571
atp1572
a(Vcryptospout
p1573
(lp1574
V1FE6eeFGgn6sXyK5f3su6fT8csmRtAGir7
p1575
aV1FE6eeFGgn6sXyK5f3su6fT8csmRtAGir7
p1576
atp1577
a(VFlyingBambooFish
p1578
(lp1579
V1GUXZtg8DQmsoZqWK6HhnEPjN2PCgSYr4S
p1580
atp1581
a(VFollow_cLear
p1582
(lp1583
V12h4AQk7P5Xsn9tjZztmh4DKxzoYnsW7Fo
p1584
aV1KJ77BFHf2d9gWKY1wNU7idzDqS1426RS7
p1585
aV19PHneGPAM99zXattgEhESmMyyXXXQLVWc
p1586
atp1587
a(VSYonker
p1588
(lp1589
V18YqRdprBkNLdhdZUAt2agHeEVypvNwWMA
p1590
aV1MntZvt7uhvNwdXDoHjfyY5NEypmdS8qMF
p1591
aV17k1udD7KyouxjCihojV8XkTYzRv9MSpvb
p1592
atp1593
a(VSolmasan
p1594
(lp1595
V1NkDx6zLTDG1sFEoWfaoqMmpHgyW3mkE9
p1596
aV1NkDx6zLTDG1sFEoWfaoqMmpHgyW3mkE9
p1597
atp1598
a(VNatchil
p1599
(lp1600
V12wzewNuJ2ERQrvYkAL7GoBydof9Eh4Usw
p1601
atp1602
a(Vnewhampshire22
p1603
(lp1604
V1CBr5J9vPMVzf5S22vdMUXkcLw8p4w7JgU
p1605
atp1606
a(Vero79
p1607
(lp1608
V1EDNFQ5vJdYhHwuq7u53YcVPJXqM5QbX1i
p1609
atp1610
a(Vqwsazxcde1
p1611
(lp1612
V12C7vYya3LMQZCnGYgSdKLsAJto38hCHhm
p1613
atp1614
a(Vtheochino
p1615
(lp1616
V1EW7ESwvS3yGesSbP8G5ULsHYmy5pykeCG
p1617
atp1618
a(VTrillionSatoshi
p1619
(lp1620
V1FeexV6bAHb8ybZjqQMjJrcCrHGW9sb6uF
p1621
atp1622
a(VSiigari
p1623
(lp1624
V1k1xbLFAjk2A2txgpe8qPRTVYjkTGLsTY
p1625
aV15iF5aQBvZDuy72ufa4JJPK5voAU7J7naj
p1626
atp1627
a(Vjamie1029
p1628
(lp1629
V1Giy3uaBtzyCPeWX9rpPn9NPp8Td1zrwVW
p1630
aV1NjbcM51ma4vLEwnpFtGWcX6gjRZuh1RDn
p1631
atp1632
a(VKmhowe77
p1633
(lp1634
V1KJzp1VQegwAhH8c4mjnEmhnGRbXKY62Hg
p1635
atp1636
a(VTengokuq
p1637
(lp1638
V1FYZ3vEnvUx9UGNg7qpMSvUynFtcKSC6pJ
p1639
aV1FYZ3vEnvUx9UGNg7qpMSvUynFtcKSC6pJ
p1640
atp1641
a(VKmhowe77
p1642
(lp1643
V1KJzp1VQegwAhH8c4mjnEmhnGRbXKY62Hg
p1644
atp1645
a(Vfinessestreet
p1646
(lp1647
V1LHsrowTpobDbKDe1q4s2zep1csy2EBsVj
p1648
atp1649
a(Vwtfbreadwallet
p1650
(lp1651
V1MPK4usft5nxvcFdACLuQKNu2znhVyFBYm
p1652
atp1653
a(Vtimgfx
p1654
(lp1655
V1BotWjHceBKarsjbDyjxA49h4ZSZccjp3V
p1656
atp1657
a(VFlowerBug
p1658
(lp1659
V1Ld65JbZABfozVZ3fGJ2hhA1Tfcz8KUSRH
p1660
atp1661
a(Voshirowanen
p1662
(lp1663
V17aVU9TqDdjWcoYe2dzVnMsBP2NLeibTC2
p1664
aV199VtfUydjE5zYdjEFRf8p48crUDRCJMq9
p1665
aV1LT6zPA8hCVA9PSirjWCNzJUZLRYg1Ljv1
p1666
aV1xpfWwkrfSXd8xqvVYxBDfjoeDtEHMtrw
p1667
aV1Beb9dKjCf3PNJ7HCaMNCr8BaStacDg1Cn
p1668
aV1A2cczWyLwa7tCaSQiLbKFHaCA491ytdA
p1669
aV1qDMyVReyov9yuEXmf1bUyBHphrimYtje
p1670
aV19Bd4s1NVMb612ogciokPi6Jar8MkHWfP2
p1671
aV1AufXQKpec8LG5HyWK2QHa9hFYwsxCRZiw
p1672
aV15heUSNWve1p1RmjeiBwqixi8iK2KzQMBE
p1673
aV1DDudcWjDXyPhbnU9iBirVRGJbVfxG2pfx
p1674
aV1F4gvGCkwMTfFSX6qcX3F7p1u9C39SX8Fu
p1675
atp1676
a(VHealadinn
p1677
(lp1678
V1PweHLxpeQGeVvj912j8cGn1aYgH5joCBE
p1679
atp1680
a(Vmasterzman
p1681
(lp1682
V1HQ5xwx2RPFYQ4GMTanU2bpgVZXumjHLys
p1683
atp1684
a(Vdorschm
p1685
(lp1686
V1H5En81woNBoPJyn7ZK9M7dWw7icQUrw75
p1687
aV1DGpVjTSh2NEPk781Sy6fnxj4noUminZiM
p1688
atp1689
a(Vpaulds_fr
p1690
(lp1691
V1NBHz7YCkehSg8WKyVLzzog99wk9da8mJj
p1692
aV1NBHz7YCkehSg8WKyVLzzog99wk9da8mJj
p1693
atp1694
a(Vkk900
p1695
(lp1696
V14hgrxhMDa8Po98wtR42e6RB8CSp5y5A6w
p1697
aV14hgrxhMDa8Po98wtR42e6RB8CSp5y5A6w
p1698
atp1699
a(Vomnes-moritur
p1700
(lp1701
V14ADSrKRjzwSeDYpuoVy4nFAXt3DcQVpFv
p1702
aV1Em9JLLwNGpet5K6UvkxurxowD5ksqkeU4
p1703
atp1704
a(VTheBigBlabberMouth
p1705
(lp1706
V1EWPbzJk7nKkSVkUJQMz2yGkahovg82VpW
p1707
aV14HgRrtEuWo6TUAJm2bvyjhVpMPntvatZ6
p1708
aV114Cp33K1ay64Vh5C4cGpn3ncac2hKQFgs
p1709
atp1710
a(VLightningHuang
p1711
(lp1712
V14mhzjkJ71oMAMkKu3dy98dnUpkyQBHL1r
p1713
atp1714
a(Vbrocktherock68
p1715
(lp1716
V1H6ZZpRmMnrw8ytepV3BYwMjYYnEkWDqVP
p1717
atp1718
a(VMrB1ond3
p1719
(lp1720
V1ECvVMvG9sigU8abL5MutAiyencSR7kR3p
p1721
atp1722
a(VC3Pdro
p1723
(lp1724
V19MsB1uaykiQSFUsazLDWMGijoASV8GQYc
p1725
atp1726
a(Vbitcoinlady
p1727
(lp1728
V155bPDZxJkbdK6mB1tFAV1km2YPwqt92W
p1729
atp1730
a(VBinaryResult
p1731
(lp1732
V17Q4MX2hmktmpuUKHFuoRmS5MfB5XPbhod
p1733
atp1734
a(VLindasAruba
p1735
(lp1736
V1LvnFoorCQ6TPTKxkT2X112waAeBqfKB6X
p1737
atp1738
a(VTheBigBlabberMouth
p1739
(lp1740
V15yHJnLQaQH7jggJsHYGxdNCNHyHVofCuf
p1741
aV15yHJnLQaQH7jggJsHYGxdNCNHyHVofCuf
p1742
aV15yHJnLQaQH7jggJsHYGxdNCNHyHVofCuf
p1743
atp1744
a(VFagexSupport
p1745
(lp1746
V1LyeqVEyvKd2XRPMrBPWa643DdNM47yr2a
p1747
atp1748
a(Vsonofbelial1983
p1749
(lp1750
V381pXT7jSWis2tnL71Fnh7CTy4dW58deFr
p1751
atp1752
a(VGhyuoid
p1753
(lp1754
V1DdWwRWwhQKgB45cxRN2bXb4j4P32R3gjr
p1755
atp1756
a(Vbtcsa
p1757
(lp1758
V18J1ogW8FFGNuu9gefBVBWUVv78V2p9qD6
p1759
atp1760
a(VAngelnero
p1761
(lp1762
V1NUdzytc8puSCun3kB8wce9nyzdBK5YV8M
p1763
atp1764
a(Vsonofbelial1983
p1765
(lp1766
V3FzJeGQyk25kpwj3pRgYfm9iMZYjRmdrap
p1767
atp1768
a(VeN0Rm
p1769
(lp1770
V14G6BzmNVSm9tWHyB2aebc3WMjVNojrRJf
p1771
aV1MFXYK1XucKFfhPhW9HDHD3vsM9BKey4qm
p1772
aV1MFXYK1XucKFfhPhW9HDHD3vsM9BKey4qm
p1773
atp1774
a(VeN0Rm
p1775
(lp1776
V14G6BzmNVSm9tWHyB2aebc3WMjVNojrRJf
p1777
atp1778
a(VDs720
p1779
(lp1780
V12wPayNTmJ8StkJxHoMrG3eo9PJznHgHJu
p1781
aV155d6B2fXcF9wqpxPqnnBt1zK5Jqc9rBJg
p1782
aV3AtbpAikJ6C11ZCHiYbEKcSjyoVjzfxYwU
p1783
atp1784
a(VCrazyhorse6970
p1785
(lp1786
V19WJGKpwYnW2SYKPLV5psSQjU8bewiEkQL
p1787
aV1LMrshuK8GdJjukVrrbWkT9FUi4aCTvATe
p1788
aV19WJGKpwYnW2SYKPLV5psSQjU8bewiEkQL
p1789
aV155M7TvBRww6WFdtGQgTYUH8DuLheNafCf
p1790
atp1791
a(VTheBigBlabberMouth
p1792
(lp1793
V15yHJnLQaQH7jggJsHYGxdNCNHyHVofCuf
p1794
atp1795
a(Vpravin0911
p1796
(lp1797
V1PqNqXXd9zZ5sjgqsL9mktnqQ5AtmnvPDe
p1798
atp1799
a(VBIFTAWARRIOR
p1800
(lp1801
V1GqrtGQC5H8m7TK2ipJVLQCQRn8v1QrrK2
p1802
atp1803
a(VMentor77
p1804
(lp1805
V39coweGgC8CPZ6hYL1BBEfc1zqbSfHsprW
p1806
aV35emx395afKAKAr72VoePVbu3FJvxLPVny
p1807
aV1Kr6QSydW9bFQG1mXiPNNu6WpJGmUa9i1g
p1808
aV39coweGgC8CPZ6hYL1BBEfc1zqbSfHsprW
p1809
aV35emx395afKAKAr72VoePVbu3FJvxLPVny
p1810
aV1KEpBWJ87TTyRJaSkeNTJVq4zEMAZ7g1hc
p1811
aV1KEpBWJ87TTyRJaSkeNTJVq4zEMAZ7g1hc
p1812
atp1813
a(VFuckswithplatypus
p1814
(lp1815
V1Kr6QSydW9bFQG1mXiPNNu6WpJGmUa9i1g
p1816
aV39coweGgC8CPZ6hYL1BBEfc1zqbSfHsprW
p1817
aV35emx395afKAKAr72VoePVbu3FJvxLPVny
p1818
atp1819
a(Valtovecchia
p1820
(lp1821
V1Dorian4RoXcnBv9hnQ4Y2C1an6NJ4UrjX
p1822
atp1823
a(VTheBigBlabberMouth
p1824
(lp1825
V14rVjr1pP4eoHhuYaf4LWkEB7cCdWWZwZN
p1826
aV138o4nN2yE1Bx9j1qgF9iTYKgW1SC2nTgm
p1827
atp1828
a(VBashCo
p1829
(lp1830
V16LQz2KNUiAZ3rs9LX9oLqLG9udPFaz93k
p1831
aV1NYT1f6Mbty6iZiHPQtM5fDSmSKk6e2HKN
p1832
aV1NYT1f6Mbty6iZiHPQtM5fDSmSKk6e2HKN
p1833
aV1BitcoinEaterAddressDontSendf59kuE
p1834
atp1835
a(Vverstands
p1836
(lp1837
V39coweGgC8CPZ6hYL1BBEfc1zqbSfHsprW
p1838
aV35emx395afKAKAr72VoePVbu3FJvxLPVny
p1839
aV1Kr6QSydW9bFQG1mXiPNNu6WpJGmUa9i1g
p1840
atp1841
a(Vdublinjammers
p1842
(lp1843
V1Eihn5TNN7k82ry4yxC4VQoDxKwAJjEevr
p1844
atp1845
a(Vrekcahxfb
p1846
(lp1847
V1NYT1f6Mbty6iZiHPQtM5fDSmSKk6e2HKN
p1848
atp1849
a(Vrechemco_official
p1850
(lp1851
V1tempAitLUWwgNGhiJjAxXegv61tXd6x2
p1852
atp1853
a(Vcpt_ballsack
p1854
(lp1855
V18YhAcNcTYuy2ZWageKrqmibfdSKjPpayk
p1856
atp1857
a(Vbtcdrak
p1858
(lp1859
V39coweGgC8CPZ6hYL1BBEfc1zqbSfHsprW
p1860
aV39coweGgC8CPZ6hYL1BBEfc1zqbSfHsprW
p1861
aV35emx395afKAKAr72VoePVbu3FJvxLPVny
p1862
aV35emx395afKAKAr72VoePVbu3FJvxLPVny
p1863
atp1864
a(VBobanaut
p1865
(lp1866
V1EnDZkT8Thep9sfbAy5gwg23EHhZw7tYwg
p1867
aV1L3Zqv68zsXxNs53r25dKcUgjDe1119Rhj
p1868
atp1869
a(VAdaptivedev
p1870
(lp1871
V1eb6ace2c79bade5dc1c554e91488617
p1872
atp1873
a(VQewbicle
p1874
(lp1875
V35emx395afKAKAr72VoePVbu3FJvxLPVny
p1876
atp1877
a(VJoloffe
p1878
(lp1879
V35emx395afKAKAr72VoePVbu3FJvxLPVny
p1880
aV39coweGgC8CPZ6hYL1BBEfc1zqbSfHsprW
p1881
aV35emx395afKAKAr72VoePVbu3FJvxLPVny
p1882
atp1883
a(Vshadowboyah
p1884
(lp1885
V35emx395afKAKAr72VoePVbu3FJvxLPVny
p1886
atp1887
a(Vwhatisgoingonhereoy
p1888
(lp1889
V1Pm9qMnyfxMVNHdEBJwkGaN7LKPLpBz281
p1890
atp1891
a(VAtlas_84
p1892
(lp1893
V15NwDPVgNhkyQ9q1Y1UggbBq8nv3YKBcwb
p1894
aV15NwDPVgNhkyQ9w1Y1UggbBq8nv3YKBcwb
p1895
atp1896
a(Vtrixong
p1897
(lp1898
V38ui82PvKouMGFZeCYmFybdewMLYZ6xoqt
p1899
aV3HNSiAq7wFDaPsYDcUxNSRMD78qVcYKicw
p1900
atp1901
a(Vrekcahxfb
p1902
(lp1903
V1NYT1f6Mbty6iZiHPQtM5fDSmSKk6e2HKN
p1904
aV1BfxSuxJqXuizBbTcP238JZY9DT4eqvzJG
p1905
aV1BfxSuxJqXuizBbTcP238JZY9DT4eqvzJG
p1906
aV1BitcoinEaterAddressDontSendf59kuE
p1907
atp1908
a(Vno_btc_for_me
p1909
(lp1910
V3HNSiAq7wFDaPsYDcUxNSRMD78qVcYKicw
p1911
atp1912
a(Vgowithbtc
p1913
(lp1914
V3Kf31ywzMjF6W48NM1WByRgescEJaGDAAV
p1915
aV3NMkeWidzL7MQbrdMR9m7guANcNJofxyJD
p1916
aV32JUrk6gPDj2sJ4FM8HhHSC8g957cRDS2e
p1917
aV33qM1scZDyxS6DkUXNUmMwFs3QG1Qbu9JF
p1918
aV3BxsErcrcDaQR8US4NgpzR444shG41ncZq
p1919
aV39S5vfCQn83iLYaNX2zbBxe28V3pZzgqRg
p1920
aV3PwkxeykAgVUc1VRhawr6aSEWobsS7GfHn
p1921
aV3ACXE9RVVW8R8wrvrwqqnFaviudFPzSH1c
p1922
atp1923
a(Vr1ddl3m37h15
p1924
(lp1925
V17ac4moXPanV5QzuXRCiBs8uzRSjeSos3h
p1926
atp1927
a(Vnortamod
p1928
(lp1929
V13DiaGYfmytzvGwssts9gK4DKYDH9Ra4yN
p1930
atp1931
a(Vnbctoday101
p1932
(lp1933
V1CSzFDPGF4JK7jEhmRxN43L3NpSkz8JEpe
p1934
atp1935
a(Vcryptomonk_
p1936
(lp1937
V1PbgVwhqQ9exuwyAC6RB9j3K8TU58QZebi
p1938
aV14PKB3sH23Gs9EShyfyYxgCKjKf4s1A6Lk
p1939
atp1940
a(VLenlo123
p1941
(lp1942
V1PK3G8kHWAM6SxkTnj6MvRicwZUDS7P5u7
p1943
atp1944
a(Vgapil301
p1945
(lp1946
V3GmWMRX4BfVbU9cykDYPhtwQ6ovr9q3XPH
p1947
atp1948
a(Vs--sfs
p1949
(lp1950
V1LjBQSHrtY5pXaNp4WWJ2MSZHZduc2yF9z
p1951
atp1952
a(VLightningHuang
p1953
(lp1954
V14mhzjkJ71oMAMkKu3dy98dnUpkyQBHL1r
p1955
atp1956
a(Vjratcliff63367
p1957
(lp1958
V1DVpJ2Nu1wgtGjtyLPSr578hx1NUouTNVX
p1959
aV1CagEhhb1TyLZmqzgBG64fmUKBX5YFfvqP
p1960
atp1961
a(VMIkeHBrown
p1962
(lp1963
V16m8BHbWVDgRSGRU3WVtqsay3JaEved12w
p1964
atp1965
a(VLightningHuang
p1966
(lp1967
V14mhzjkJ71oMAMkKu3dy98dnUpkyQBHL1r
p1968
atp1969
a(VThrowAwayDDDhial5
p1970
(lp1971
V35599E3B7GyMTFmxcNiVeDBdEpyvoYfZPA
p1972
atp1973
a(VImperatorny
p1974
(lp1975
V3KzEvyrSK1o3qekqTGWipo4sAomDu28G4T
p1976
atp1977
a(Vblime-sub-ab
p1978
(lp1979
V1A3arpN554knihfPDwJrBKPB3SUJKbeAh2
p1980
atp1981
a(Vjmypetersen
p1982
(lp1983
V17kVyWrB7Z3j12eAFaVQJYv3Kq9ZpLzRGr
p1984
aV1AGaCRnVijJeNDDF14qzZ2UvLuosLuKwuP
p1985
aV1CzUkmNrP694M1y8bkNatrV4iPEFkhkn6U
p1986
aV17YYeNevLyg1yyt35rSQmExxHDEKUbxTVk
p1987
aV1PtmcbPtsq4e2iy3ykto8LwT6s4DhfUvFe
p1988
atp1989
a(Vwintercooled
p1990
(lp1991
V1GdK9UzpHBzqzX2A9JFP3Di4weBwqgmoQA
p1992
atp1993
a(Vdublinjammers
p1994
(lp1995
V1HawR5egZsnYwfKUrJgHH2WqBrgsssmsww
p1996
aV1HawR5egZsnYwfKUrJgHH2WqBrgsssmsww
p1997
atp1998
a(Voshirowanen
p1999
(lp2000
V185aJoLovQjdRyRvP8YFwcdAEkw98GGiZs
p2001
atp2002
a(Vdublinjammers
p2003
(lp2004
V1HawR5egZsnYwfKUrJgHH2WqBrgsssmsww
p2005
atp2006
a(Vetucexe
p2007
(lp2008
V1JohnxNT6jRzhu3H1wgVFbSGKmHP4EUjUV
p2009
atp2010
a(Vdublinjammers
p2011
(lp2012
V1HawR5egZsnYwfKUrJgHH2WqBrgsssmsww
p2013
atp2014
a(Vqlassar
p2015
(lp2016
V3MpHZFXuWW3zXL8AYKcfNHLW7ZCRBayy3W
p2017
aV33HgGvHTxcoQNpVKAiyzi6JtJVDRnbn1Ao
p2018
aV3Pnnt5bbvjAnTaoh3hJExcQHMNrcDRhBK9
p2019
aV1L3h2xbDRmJDZooz9DFM4k43iVfvhJ1kog
p2020
aV12aDD1xX9oP5V9PkEQm9G2H9vjrwW91u8i
p2021
aV3ESXW2wxi7yK3DG2ws5MmHdo4eybWx8PpN
p2022
aV3Dk9devHkcWsKaEytH9d5cqe5btqHZrZvt
p2023
atp2024
a(VDisruptMeister
p2025
(lp2026
V3MpHZFXuWW3zXL8AYKcfNHLW7ZCRBayy3W
p2027
atp2028
a(Vevandam
p2029
(lp2030
V1x5sem5nW6Gn18683ktrNkaFMMHvF7ggf
p2031
atp2032
a(VddIbb
p2033
(lp2034
V1HswqbS6swTMarPh6QwQme9QmBA12cwoMp
p2035
atp2036
a(VddIbb
p2037
(lp2038
V1HswqbS6swTMarPh6QwQme9QmBA12cwoMp
p2039
atp2040
a(Vmempooler
p2041
(lp2042
V1H3bmag7LrBZfc33t8VaZ3EUjnuaMU47qr
p2043
atp2044
a(Vdublinjammers
p2045
(lp2046
V1HawR5egZsnYwfKUrJgHH2WqBrgsssmsww
p2047
aV1HawR5egZsnYwfKUrJgHH2WqBrgsssmsww
p2048
atp2049
a(VbeelHQ
p2050
(lp2051
V1HkJKLwAiDDBAZFWoftaZoJXQMryHewUUe
p2052
atp2053
a(Vsnowcap420
p2054
(lp2055
V301ee7fab74ca8e7df017fb3a316cb20
p2056
atp2057
a(Vdobroezlo
p2058
(lp2059
V1L47Mtb2Hdi16sunaiaqAaUEqUmXZatM5W
p2060
atp2061
a(Vnacodasiel
p2062
(lp2063
V1C8m8B414eQAWmE8cB1ycQ8eJDBon85zCV
p2064
atp2065
a(VMalakute
p2066
(lp2067
V3Dcd584dde8f004a9880bd2d97cd3ad495
p2068
atp2069
a(Vangreeee
p2070
(lp2071
V1C3bL8n7XPtfWh5o3pBcWkxmozDQnbub6N
p2072
aV1GPdpFFfRfezByk4Auk8vGftQpQ8yRcxAx
p2073
atp2074
a(Vlooselikejuice
p2075
(lp2076
V16YEVBDMESoGPNe2c51zX13JP1DBVtSKh2
p2077
atp2078
a(Vlooselikejuice
p2079
(lp2080
V16YEVBDMESoGPNe2c51zX13JP1DBVtSKh2
p2081
atp2082
a(Vlooselikejuice
p2083
(lp2084
V16YEVBDMESoGPNe2c51zX13JP1DBVtSKh2
p2085
atp2086
a(Vtbw875
p2087
(lp2088
V1CB8rS6Rj6FgrWCwxqW5HE8YPtSiwQ2v99
p2089
atp2090
a(Vchrismarquardt
p2091
(lp2092
V34EF06A8C6C2B44819B20AB28991CB3B
p2093
atp2094
a(Vbelkapay
p2095
(lp2096
V1FraQHqXKVzTmkqsCZnMx9UE17CFihmQ4V
p2097
aV185vTzRUxiLYayT5bnaf3C68XGEbydMgkt
p2098
atp2099
a(VApplewoood
p2100
(lp2101
V1FBsQeFG2GKKWNyqLDYNZ9ioBdhKZFVTDK
p2102
atp2103
a(Vderrend
p2104
(lp2105
V1EzwoHtiXB4iFwedPr49iywjZn2nnekhoj
p2106
aV1EzwoHtiXB4iFwedPr49iywjZn2nnekhoj
p2107
atp2108
a(Vlooselikejuice
p2109
(lp2110
V16YEVBDMESoGPNe2c51zX13JP1DBVtSKh2
p2111
atp2112
a(VCalm_down_stupid
p2113
(lp2114
V1HpdS2biJ1DrhnzHUzeXnS7AFTExMTawB9
p2115
atp2116
a(Vdarkfur93
p2117
(lp2118
V1Kp2G1W1RPVXHBAoiW8rTFsDvWEg1mJuLc
p2119
atp2120
a(Vjinwoonlee
p2121
(lp2122
V1DsLeXhUDzUVESg7aa55nBb4WU9uWCWVP4
p2123
atp2124
a(Vnevabank
p2125
(lp2126
V13393oQXKRfAxcoxDeLUXJ9nFdhCqEuSa9
p2127
atp2128
a(Vslim375
p2129
(lp2130
V1AdvBFjyP3uNEPjmmT4Bu7dKykiagPLPN8
p2131
atp2132
a(Vvisualmagic
p2133
(lp2134
V19SJKttrfqveiN6azfH1gBE8317G57tumF
p2135
atp2136
a(VUnemployed-Economist
p2137
(lp2138
V18UoBuLZWgzztt4yftrg8j35p5gPPUPfx7
p2139
atp2140
a(VUnemployed-Economist
p2141
(lp2142
V18UoBuLZWgzztt4yftrg8j35p5gPPUPfx7
p2143
atp2144
a(Vhotwiredtn
p2145
(lp2146
V1BF3uYBDjpPAjpoRSMuFMeXtGG8gPq4H9k
p2147
atp2148
a(Vmurf43143
p2149
(lp2150
V1G4Qxywam7V7PeG7LRpC8qT8zWHnUJBA9d
p2151
aV1FG3CjVzc2to8hZYJYDnVdUQaRafp1T7jg
p2152
atp2153
a(VLord_Bernn
p2154
(lp2155
V133Erpa4YHDrxuFty3kNotBiRibEk1EdfK
p2156
aV1EfdGV6XWjS3wDPRgv458A78cE5VE5m91m
p2157
atp2158
a.