(lp0
(VBro-75
p1
(lp2
V19R8zFK9QE7RwqyCzFP8KJuZBmY2XKNDqU
p3
aV15mrx59JZJ5nLvDVwD6yMYecAgDfEshxmF
p4
aV168dzTZi68ix8rBMj87No55iZyh9AsbGAs
p5
aV1EEHFAzSxgTgqu6EoyRmzT1t6fWT2HovGv
p6
aV31zAYkF1zvKMddC5fcqWeGSHTR1dtewYo5
p7
atp8
a(Vwe_are_all_the_same
p9
(lp10
V13kSAzaxcpkKpBb5J5vYbNQe3EEyakMSgc
p11
aV1QLZkG1e5QefyDeFmT3htz631NYuvoZABe
p12
aV1HoYh5FD9GHS65Jg79mKZpQJjkUE7ai6Dc
p13
atp14
a(Vreadish
p15
(lp16
V17686a64065799190aeda3aa7e42f59e
p17
atp18
a(Vlimits_are_lies
p19
(lp20
V14S7zTpsH3wp3jFAd5fDVYU9UxQfJozuXW
p21
atp22
a(Vgianluca82
p23
(lp24
V1L6xQjRtGiKZLhGrqbWFQuTwPukbWJ1AEC
p25
atp26
a(Vnerimon
p27
(lp28
V1GDpqJc51MiVE6Zo6FnWAuBfhxtdkLX84S
p29
atp30
a(VBitcoinDevan
p31
(lp32
V1B4b5GnZP9Z93RzeRd12f4pFr7x9SFKf4i
p33
atp34
a(VKalin101
p35
(lp36
V1JryTePceSiWVpoNBU8SbwiT7J4ghzijzW
p37
atp38
a(VMildlySuppressed
p39
(lp40
V1JciCT8Y71FwXZUMFtckvnZNYY8W1Y5FyU
p41
atp42
a(VAnArchoz
p43
(lp44
V18seBSX6QzTdrrr8e7DvzwzfptPGsHm5yG
p45
atp46
a(Vflow_mass
p47
(lp48
V17ucwKSwAj74jcKx1tNhBDM18hk6d6V62j
p49
atp50
a(Vdrbitcorn
p51
(lp52
V375kfCHfV9cFyejG8Cuj2SC3iQGVn8APpM
p53
atp54
a(VBro-75
p55
(lp56
V19R8zFK9QE7RwqyCzFP8KJuZBmY2XKNDqU
p57
aV15mrx59JZJ5nLvDVwD6yMYecAgDfEshxmF
p58
aV168dzTZi68ix8rBMj87No55iZyh9AsbGAs
p59
aV1EEHFAzSxgTgqu6EoyRmzT1t6fWT2HovGv
p60
aV31zAYkF1zvKMddC5fcqWeGSHTR1dtewYo5
p61
atp62
a(Vwe_are_all_the_same
p63
(lp64
V13kSAzaxcpkKpBb5J5vYbNQe3EEyakMSgc
p65
aV1QLZkG1e5QefyDeFmT3htz631NYuvoZABe
p66
aV1HoYh5FD9GHS65Jg79mKZpQJjkUE7ai6Dc
p67
atp68
a(Vreadish
p69
(lp70
V17686a64065799190aeda3aa7e42f59e
p71
atp72
a(Vlimits_are_lies
p73
(lp74
V14S7zTpsH3wp3jFAd5fDVYU9UxQfJozuXW
p75
atp76
a(Vgianluca82
p77
(lp78
V1L6xQjRtGiKZLhGrqbWFQuTwPukbWJ1AEC
p79
atp80
a(VStupidJerks2
p81
(lp82
V13AbqEg6K5WtRUgmvn4aFRn6DwrXti6VSZ
p83
atp84
a(Vperfectperformance
p85
(lp86
V1D8ZCg2dHjTfLVGhbkCzffXsWE6ogkRMj9
p87
aV3LdN1vq4RtJrWcSzw2AVgjJsbY9woQd2Es
p88
aV16Bo1u5d5KuJpbFZ4RF62Vsi37wxCTiUsM
p89
aV39dn9QiBtgBU6UhNVxQi2F7wvk5Y31ZwMK
p90
atp91
a(Vbitcoinrecoverypls
p92
(lp93
V1E6eheMU6dHayVbkqrHKcPBRPphV5vLL6D
p94
atp95
a(Vreadish
p96
(lp97
V17686a64065799190aeda3aa7e42f59e
p98
atp99
a(Vmewald55
p100
(lp101
V1LTvYhbpur5nZMe3hifMGgq28MMBzRgNdC
p102
atp103
a(Vxxfpeter
p104
(lp105
V12PYBy89CUJkoJyar48E2Shys7GBMY4CxJ
p106
aV1EWFRmPgsq3oBWRg1J23oqV3X4ydCZFXiq
p107
atp108
a(V56KbKid
p109
(lp110
V18JCmLzKQoZydXspc6CPwovWVwYtUT7DCx
p111
aV18ZnbD5JQwdEJRwKrb34nXPu7J6pHN1CMR
p112
aV18ZnbD5JQwdEJRwKrb34nXPu7J6pHN1CMR
p113
aV16YiXuw4eaFVvpyhX7mYufwsj77LHrydUx
p114
aV16YiXuw4eaFVvpyhX7mYufwsj77LHrydUx
p115
aV1NndjYLXPgHmSFYEk5exCabGbcynzqpii4
p116
atp117
a(Vfork_your_mother
p118
(lp119
V143255RWcqQdbq9apZhfugSYFMC1TXi2qm
p120
atp121
a(Vlanden_schmitt
p122
(lp123
V3Bit1xA4apyzgmFNT2k8Pvnd6zb6TnwcTi
p124
atp125
a(Vpaberlance
p126
(lp127
V1N5KxMYvY4c76bz8jTHLjM5rhGPsRkqLnR
p128
atp129
a(Vcallosciurini
p130
(lp131
V3Bit1xA4apyzgmFNT2k8Pvnd6zb6TnwcTi
p132
aV3Bit1xA4apyzgmFNT2k8Pvnd6zb6TnwcTi
p133
atp134
a(Vaffinespaceship
p135
(lp136
V1B1QBDtFaJJK3iF3LypJJpZ5WozVCfjRpB
p137
atp138
a(VVeganSense
p139
(lp140
V37T7aqLAAD7kernbpBsSRo74qkSuePpeSH
p141
atp142
a(Vhacked123456
p143
(lp144
V1Thanks2ySqoJ58P3KE5WaoTytkvR5rhN
p145
aV12b7z73W3SXn34nLmEgpY6nxbHxJT4nN9m
p146
atp147
a(Vgjakovar
p148
(lp149
V19i5sRwtoYp5EKujVbm1LuShaFBEoWAxMd
p150
atp151
a(Vgimmeanaccountffs
p152
(lp153
V12bBfTPYfkwyQxrLmJWMGvsbgTriBbLYvr
p154
atp155
a(VConservativeSavage
p156
(lp157
V1ExP8bNdrtoNuoEL3UCtLMZAefRNNzp776
p158
atp159
a(Vbenbenthree
p160
(lp161
V19tzYBN4ku9xM9uPu3iaaL3Yt3QqmcLPP6
p162
atp163
a(VBitcoinInKor
p164
(lp165
V1Lc1jhXdsB7t1XpTdNbrchnxKQide9tMia
p166
atp167
a(VDeathThrasher
p168
(lp169
V1QGbpENUv3xJCtiqTcUPM1Vvnwx5FRR6uZ
p170
aV1QGbpENUv3xJCtiqTcUPM1Vvnwx5FRR6uZ
p171
atp172
a(Vawicher
p173
(lp174
V1HTtbPu2pwJq3CyCjd954DkdzGsXMztthB
p175
atp176
a(Vuno_anonymous
p177
(lp178
V15Z5YJaaNSxeynvr6uW6jQZLwq3n1Hu6RX
p179
atp180
a(Vgaboto83
p181
(lp182
V1DaHfXsoPfZ2jznJhB62vR3QEVFhhZ2tMR
p183
atp184
a(Vjeemond
p185
(lp186
V1HWea1oE6d9AUfQYxvQ8X467V3KiYqYEhJ
p187
aV37DpVjrkfhvDzcpDF42fuSVEatd2vHcJCY
p188
aV1MSVjj6itVtW7wadk1pjf4WUScCZsSqhxb
p189
atp190
a(Vjimbleme
p191
(lp192
V3HuhK4si8nHWNVnHUWsDotjG9mQJ2bPd6B
p193
aV3HuhK4si8nHWNVnHUWsDotjG9mQJ2bPd6B
p194
aV3HuhK4si8nHWNVnHUWsDotjG9mQJ2bPd6B
p195
atp196
a(VCraZy_LegenD
p197
(lp198
V1DiALBPC4rBHVV3BY9vcWo88NsN9MHXNsQ
p199
aV1DiALBPC4rBHVV3BY9vcWo88NsN9MHXNsQ
p200
atp201
a(VRHavar
p202
(lp203
V37LkKYcwtZv2bsEbGZhGtGdYwvWGmv3L6f
p204
atp205
a(VTomer47
p206
(lp207
V1Jeyrbt2vZahXAsuKfMK6ePVCqbx681tFW
p208
atp209
a(Vkrypt951
p210
(lp211
V3KJhFo6ENYnw1ehac91pGhNVED6LgPoR61
p212
aV3LnqRBvXPgZirRsJcPGkzyCgWj7H7t3UcR
p213
aV35xAUh2tJBx5JtfmyJFPhbrFB6L214WSPv
p214
aV3KJhFo6ENYnw1ehac91pGhNVED6LgPoR61
p215
atp216
a(VPatatoo
p217
(lp218
V1ad93182fe0b4f0b7be2e52ca12f9828
p219
atp220
a(VIkazaki
p221
(lp222
V12cbQLTFMXRnSzktFkuoG3eHoMeFtpTu3S
p223
aV12cbQLTFMXRnSzktFkuoG3eHoMeFtpTu3S
p224
atp225
a(VAthena-Patrick
p226
(lp227
V1G7n9PAmypGhrvHDT3KjtyWbbeoKXajEmd
p228
aV1G7n9PAmypGhrvHDT3KjtyWbbeoKXajEmd
p229
atp230
a(VNenaDaconte
p231
(lp232
V3PtXwbscV7yXzPpoey1Wpws78ZfkxxrfWs
p233
atp234
a(Vlerbe
p235
(lp236
V1LUq4863U6kaunFo92hu1wm1qRFxt7QF6X
p237
aV1KhaSCo1LEnproY6sKEWv3FoG7qR2gxhNG
p238
atp239
a(Vddepra
p240
(lp241
V1NVwNAqWy3YvJPSwdqPnFLL91mQe7EmZsb
p242
atp243
a(VJay27
p244
(lp245
V145c4WiNVSY2fyC5k2WXBWioQfRs4LyTjY
p246
aV145c4WiNVSY2fyC5k2WXBWioQfRs4LyTjY
p247
atp248
a(Vayoon424
p249
(lp250
V18EC97UDuL8vgofyrKmfNGjvddq8hefwVm
p251
atp252
a(Vmattjc882002
p253
(lp254
V1FVESHCZeU8BvZqQgy7EBeMwUWUejVcCch
p255
aV1BXJnYkQydy7oJpEkpxTtaQHoY93st8Zb3
p256
aV12Cm8jrjomdXXy3zq5wgBqKuGgatSrLT4i
p257
aV16iX9bjHP99Eq8TnUzQGvvsAS1T4qUAkcF
p258
atp259
a(Vnyaaaa
p260
(lp261
V3AX7T8fd6F2LsZyPdk6e6M1ddbzd5ZPbek
p262
atp263
a(Vcryptomoonlambo
p264
(lp265
V14Wz4SCuKwa81UBh1U7mcaCTxMsYLLuGZK
p266
atp267
a(V20karaktererastesore
p268
(lp269
V1HHWxiSKxXso119fptePXaVkkmCRUuz1R2
p270
atp271
a(Vj3lunt
p272
(lp273
V1632ms2o69acq7Kwp3dX2TyDpeHSijH3rq
p274
atp275
a(Vexcitmemor
p276
(lp277
V1PRiME51qppfiXuTZdmNxZnXeF1fFKdRSG
p278
atp279
a(VBricaroni
p280
(lp281
V1MrDv69ZbZq4VGkHpnAQCo2QqSfmuMvX55
p282
atp283
a(Vchloe2011
p284
(lp285
V1AS3hiKTnZbyLq8yywuF9tzoF8hgAb7kYm
p286
atp287
a(Vrmmbrthnm
p288
(lp289
V1N11UhsocNAqcYue4EZ1obv25xZqv4jpsB
p290
atp291
a(Vrain-is-wet
p292
(lp293
V1WriteySQufKZ2pVuM1oMhPrTtTVFq35j
p294
aV1NSwywA5Dvuyw89sfs3oLPvLiDNGf48cPD
p295
atp296
a(VLuisLima98
p297
(lp298
V13P7nwPpCHTELmL6iJcMcLyWgfn4xv7LYM
p299
atp300
a(VDumiCom
p301
(lp302
V18SuPxynHnuB7XJBgbTv1MGXtirBERjjQJ
p303
atp304
a(Vem-zee
p305
(lp306
V1DNWV8QhVXu7HjrFoT2o9u74z5UfKBxBna
p307
atp308
a(VAlan2420
p309
(lp310
V3xxxxxxxxxxxxxxxxxxxxxxxxxxxxxxxxx
p311
aV3xxxxxxxxxxxxxxxxxxxxxxxxxxxxxxxxx
p312
atp313
a(Vhrones
p314
(lp315
V1Gi9uberSWjPnWT6UUKePUFUWWryqUxaPk
p316
atp317
a(Vger868
p318
(lp319
V1FeexV6bAHb8ybZjqQMjJrcCrHGW9sb6uF
p320
atp321
a(VConch3r15
p322
(lp323
V1Cmw5jABpxaJgjCqqGmAg2ydLVQJbMQiYr
p324
atp325
a(Vallyougottado
p326
(lp327
V1LPc59qvBVaqRkJkaEuZjQhRnHrUwZhJ36
p328
atp329
a(Vkapponen
p330
(lp331
V17Bg4KwLRzBGcUyMenFhBTiaiiJSD6HBNi
p332
atp333
a(Velectriczap4
p334
(lp335
V16vNasUyGiRREmNYvqENhhGSXPQX1aXeCU
p336
atp337
a(Vtrollelogram
p338
(lp339
V1CHqq6xvbkecCqtgTrpga35oxqGR9mDDiN
p340
atp341
a(Vcryptohype
p342
(lp343
V14tbVkExcNEvhSfpn6cr9qjdAwTurLjHMc
p344
atp345
a(Vtaktokotkat
p346
(lp347
V1HLoD9E4SDFFPDiYfNYnkBLQ85Y51J3Zb1
p348
aV13CeYW5opbzf3eW9FNTWS4mnquQJ9bje5t
p349
atp350
a(Vpacolaro
p351
(lp352
V1Nae2EQdUZf4z9w2tz7hzQuHqngCoiY2CG
p353
aV1Nae2EQdUZf4z9w2tz7hzQuHqngCoiY2CG
p354
atp355
a(Vbubbahent
p356
(lp357
V1CEj1EiJZRxARMjjwV4qDWYLeDLuQwuXvQ
p358
atp359
a(Vcouscous200
p360
(lp361
V1EnVXBPB1r5Kak7wDg9E5Y3fjr82sLJePy
p362
atp363
a(Vdeadzavri
p364
(lp365
V1JX1kXQwvupQYJ9S593LJXMDCrMQ115MGg
p366
atp367
a(Vthrowme1955
p368
(lp369
V1KuEFp9KhgVJ2Ww4tNB1h1dNcghHify1j4
p370
atp371
a(Vtravisjd2012
p372
(lp373
V1D2NXX1mJcLUmwdRAihjdfQ6jP9ZdRHUvh
p374
atp375
a(VSir_Nom_de_Guerre
p376
(lp377
V1DGv99pkF8idxrmUbRN29TiVfMsvYp69cN
p378
atp379
a(VAmicableD
p380
(lp381
V1MNvaAXfZJV2JGuvCyfbUHhYEemSEEnm6a
p382
atp383
a(VCryptostuck
p384
(lp385
V1PjjAs7zCaQYHC6GivRb2rPs4ALSFWKEoP
p386
atp387
a(Vflopmayweather
p388
(lp389
V17sa44SZLsgzkpaz9gRiLcyujkX5YfAwE8
p390
atp391
a(Vbitcoinstarter
p392
(lp393
V1CgCM4qdEBpCLJt6yrbHn9w39J2gtd6HNt
p394
atp395
a(Vddbbccoopper
p396
(lp397
V1Fc2WDYQJ4MQqTJjdKqYdWuNWjdBk1aMxU
p398
atp399
a(VSpazzzMonkey
p400
(lp401
V3PDJMAMEH27QMT8cusCPXeJpdaryr9hrFQ
p402
atp403
a(Vpimpingken
p404
(lp405
V1G4CjzQzYJ2fty5RXc4U1LCrdKUrHtwxu5
p406
atp407
a(Velmoelmo69
p408
(lp409
V1BeSnUiYgYZyxdZ9HoC4CwuZJ8wTseE8DZ
p410
atp411
a(Vpimpingken
p412
(lp413
V1G4CjzQzYJ2fty5RXc4U1LCrdKUrHtwxu5
p414
atp415
a(VIntro24
p416
(lp417
V1HLmDVf7HhGmcmYop1eEKJQNHmrhjYJv49
p418
atp419
a(VKaloyan14
p420
(lp421
V1Dq9x9Dp3CPyLbypfrBJ5TvyZYJQNiv5zP
p422
atp423
a(VEik_NL
p424
(lp425
V1EEoToJ4eRt3hnpetvtDojpkHkznhDUEWP
p426
atp427
a(Vdementperson
p428
(lp429
V1JbZpEhHDuNqmquWyBu1zt5oorVsy28VMn
p430
atp431
a(Vjeffreyharmon
p432
(lp433
V1NqGsghoWMiGezrNyv7Abjoqmf4ftx7an4
p434
aV16H5t2a9vgTS2vRgu3nvmRneQymwV6XjFq
p435
atp436
a(VCriptoCrip
p437
(lp438
V1DdHgUu9mq99GvuS29ZpooaBxB1CLaEgwe
p439
atp440
a(Vgoodbtc
p441
(lp442
V1Enjoy1C4bYBr3tN4sMKxvvJDqG8NkdR4Z
p443
aV1FFirnLctcZxVx5otnLNZ4dDGUkMBM4vNr
p444
aV1NwKxTBrqrfa1YFLB44gyJEj2GanZ2qtDK
p445
aV1SochiWwFFySPjQoi2biVftXn8NRPCSQC
p446
atp447
a(VFeri22
p448
(lp449
V17vuFNsxYsuxvwciXiu8rB6xtCehdQeFWZ
p450
aV1ANDhPKBeYQ2GHUwwHaj88Xu1CXLVmS1p5
p451
aV14qgM72zX4G1vjSsja1MDLFe14aTVpjFAj
p452
aV14qgM72zX4G1vjSsja1MDLFe14aTVpjFAj
p453
aV1G6ErrdEDr4GeaAmv7Dvc7tpgBSp6CDjJJ
p454
aV1G6ErrdEDr4GeaAmv7Dvc7tpgBSp6CDjJJ
p455
aV1G6ErrdEDr4GeaAmv7Dvc7tpgBSp6CDjJJ
p456
atp457
a(Vurveshvasani
p458
(lp459
V15sNZxi1CJxY33tgaoFwKhbMHe2gpRemz2
p460
aV1NyWST8fCGDgg6cnjz7P3jjh8F16Si9VWH
p461
atp462
a(Vblxnmpr
p463
(lp464
V12cq4VnwTtiVwYubkP4qwckVHTjPGjHFts
p465
atp466
a(Vapeg989
p467
(lp468
V194CN5iEpu2L6eSb9DW3F6RunuNixUS41b
p469
atp470
a(VYoungShibe
p471
(lp472
V1LPJWQT2Lc4ffzAXQCGqCfJdFVDbLujW5z
p473
atp474
a(VThrowSway11
p475
(lp476
V1NCrV3mpU8dqe2bX1sxL3eAbU9X5T5B1FZ
p477
atp478
a(VSweetDPhilly
p479
(lp480
V1DN2QL99XNsfCK2TM4tGd48u6ZEAyL3cwx
p481
atp482
a(V247CryptoNews
p483
(lp484
V1BaoTezLSYP6RmSiJbAPL3fJHXSYteVJGz
p485
aV1DSCpHioR5L2Mg26SsSnmqXCrCcuFhkajD
p486
atp487
a(VaL_eX49
p488
(lp489
V1PppKVjqqtXNghuGH2ZCRCxwa8UbX7PFGe
p490
aV13Vp8xBWiiySpbopXaZBekcMNijqEnRwjf
p491
aV1FfBTYvMddXkrHg1spgM4XmMRpsvXoZRhY
p492
atp493
a(VPizzaBuyer
p494
(lp495
V3P2jxfzHTjxvq29P85nGddNKqUkcXfeiYi
p496
aV3P2jxfzHTjxvq29P85nGddNKqUkcXfeiYi
p497
aV3P2jxfzHTjxvq29P85nGddNKqUkcXfeiYi
p498
atp499
a(Vitsjustchuck
p500
(lp501
V1Bap2zxbsTNQbSio8MXy1QqbvVoNn5MrVc
p502
atp503
a(Vi_am_tom_riddle
p504
(lp505
V1MMKsRPXopb7pXSpt7Ne4VT1B8H7RpnJ99
p506
aV126QneminEM3hpTADJXMkQoVLjvBjTeyXT
p507
atp508
a(VAlpharazorOne
p509
(lp510
V173iLSxGY2Ze5aBc4kvafncjq4dHyxd3qP
p511
atp512
a(Vcryptogyan
p513
(lp514
V1KAk3ohEXEDSVPGiR2EkeLN3QU38FHtMmN
p515
atp516
a(Vwillma5
p517
(lp518
V152GGJEWR9dAKdELRnaGRSHWE2GnRJ6FyY
p519
atp520
a(Vdhtmldude
p521
(lp522
V1Pz4WTDy9GWiV4LqL7utr3vkZyqixRv2es
p523
atp524
a(VZachMorris44
p525
(lp526
V14qzdUF5fD9Kkh4zm9kk5eJ58nVt7hi6UP
p527
atp528
a(VWophala
p529
(lp530
V1CounterpartyXXXXXXXXXXXXXXXUWLpVr
p531
aV1111111111111111111114oLvT2
p532
atp533
a(VClorox_Energy_Drink
p534
(lp535
V1EBHA1ckUWzNKN7BMfDwGTx6GKEbADUozX
p536
aV18f1yugoAJuXcHAbsuRVLQC9TezJ6iVRLp
p537
aV14e7XAZbepQp9MXXzjNG3fNLoAUpaBAXHW
p538
aV1PnMfRF2enSZnR6JSexxBHuQnxG8Vo5FVK
p539
aV1KiVwxEuGBYavyKrxkLncJt2pQ5YUUQX7f
p540
aV1DiHDQMPFu4p84rkLn6Majj2LCZZZRQUaa
p541
atp542
a(Vdhtmldude
p543
(lp544
V1Pz4WTDy9GWiV4LqL7utr3vkZyqixRv2es
p545
atp546
a(Vlazyear
p547
(lp548
V12fj5Stp31SrYjtcN9T1jnXPGKUsEF92KD
p549
atp550
a(Vsoytendies
p551
(lp552
V1AxCKHendnZ16NBMbp5bzUcUfub6vX9PTn
p553
atp554
a(Vreflux8
p555
(lp556
V19DAvGg2NgNwNyNqmJ18me8GB1qD5DovE3
p557
atp558
a(Vbitsinabyte
p559
(lp560
V1Laz1SmrkCVHk6qBqW9TUTJ5seTwWhZMuz
p561
atp562
a(VCheesedude666
p563
(lp564
V14zMJH9kbaoL1hqBtSfi276t795qyHDKwi
p565
aV14zMJH9kbaoL1hqBtSfi276t795qyHDKwi
p566
aV14zMJH9kbaoL1hqBtSfi276t795qyHDKwi
p567
aV14zMJH9kbaoL1hqBtSfi276t795qyHDKwi
p568
aV14zMJH9kbaoL1hqBtSfi276t795qyHDKwi
p569
aV14zMJH9kbaoL1hqBtSfi276t795qyHDKwi
p570
aV14zMJH9kbaoL1hqBtSfi276t795qyHDKwi
p571
aV14zMJH9kbaoL1hqBtSfi276t795qyHDKwi
p572
aV14zMJH9kbaoL1hqBtSfi276t795qyHDKwi
p573
atp574
a(Vchipmixer
p575
(lp576
V1Lc7S3ATAq3fJUotjmJ9ey3v9BDSG3AgWw
p577
aV1Lc7S3ATAq3fJUotjmJ9ey3v9BDSG3AgWw
p578
atp579
a(VKoreanBTC
p580
(lp581
V1PqARoGzHhijnMY6j1j6zxZVLcyenPyzWf
p582
atp583
a(Vpcr3
p584
(lp585
V1DyV45JDNWPbsHH9MoeCHfpiDEEaWgi4zY
p586
atp587
a(Vjatsignwork
p588
(lp589
V1Mz7153HMuxXTuR2R1t78mGSdzaAtNbBWX
p590
atp591
a(Vdan897
p592
(lp593
V15wSzv9CgjGxz2vxrKRUUzEajeFccQZ8Ss
p594
atp595
a(VItschtulu
p596
(lp597
V1AtAEzLsSSuSjcjaSW5AzyH7hQaG6y1Dhf
p598
atp599
a(VDanJaay
p600
(lp601
V3MZDhuGDFTc5usWrdWE9rn2MR86TK9HTVM
p602
atp603
a(VBinaryResult
p604
(lp605
V17Q4MX2hmktmpuUKHFuoRmS5MfB5XPbhod
p606
atp607
a(VNeek82
p608
(lp609
V1PfWQ9vkBRdZFGy9kz88oMSKVqin4jK6DH
p610
aV17Sewo2LUShuTm1kGP46ytS3Q4K3FDzqwu
p611
atp612
a(Vthisisforyounow
p613
(lp614
V1LJF53qsjSDCgaWSRcR4ZeofnudfzRxCZy
p615
atp616
a(VMiladran
p617
(lp618
V1MnaKobJzpaCPCmr5i3twKtXKw5vTgXPfE
p619
aV14tFT5q6VEyxKGtuEgi26fGjWsUoijFT5p
p620
atp621
a(Vprivatebravo
p622
(lp623
V1QGYPwNRrBnr7iCvVminWTbx6fKpgQetPx
p624
atp625
a(Vbostrot
p626
(lp627
V1KE6PsUcRaiU1HaL3e3uuxWVjxioRSQ5P8
p628
atp629
a(VNhiyla
p630
(lp631
V1JXQUFPh4QrnDhL7tF5JCvwZMRvn1Esm9r
p632
atp633
a(Vjlcooke
p634
(lp635
V1L75eRMgeCwAxEjD1oWXjLgud9jxwxm34u
p636
aV1L75eRMgeCwAxEjD1oWXjLgud9jxwxm34u
p637
aV1L75eRMgeCwAxEjD1oWXjLgud9jxwxm34u
p638
aV1F4JZYZr4rQhFeJ9P4N9ZL2cHe5cPsbnxw
p639
aV1F4JZYZr4rQhFeJ9P4N9ZL2cHe5cPsbnxw
p640
aV16jY8U2PodHZ79jKkSvjzVYoAjVQTpu6Q8
p641
aV16jY8U2PodHZ79jKkSvjzVYoAjVQTpu6Q8
p642
atp643
a(Vmplacona
p644
(lp645
V1DYfZD8CRtBQQ3kEYb261Q6aywtK6zbZUu
p646
aV14N9ydxNRhDxkKJvXg1vjqS3gh884vG3UM
p647
atp648
a(Vcrrdlx
p649
(lp650
V19rMJGZu3uSRaPapLnzJY6DvR76GfpNPRQ
p651
atp652
a(VSigmundGo
p653
(lp654
V19N1ymPRrnDsiAgaMeRCf288QcwWM1fiR
p655
aV19N1ymPRrnDsiAgaMeRCf288QcwWM1fiR
p656
aV1NUebnpXh3XBVdr68oqdJYyAQEUMw6JJCH
p657
aV1NUebnpXh3XBVdr68oqdJYyAQEUMw6JJCH
p658
atp659
a(Vwise_young_gentleman
p660
(lp661
V12EJ4xuBnXCnNN8PdZyitEn4W5m7o14J66
p662
atp663
a(VPuffycheeses
p664
(lp665
V1DtrjNKwyT1htLVRZikWtUjm6Npg3kk6C9
p666
atp667
a(Vpocketleg
p668
(lp669
V19dMSGr5FKFnM7Evg9a9aksNMqbCR4BCJb
p670
atp671
a(Vsfsilks
p672
(lp673
V1EmBemXapuxrYDgS5PE2FskozKZSnXi2SJ
p674
atp675
a(Vbtc000x
p676
(lp677
V3Boz555aX9ZB674Dv4CPA6VFLhK4zuUnXg
p678
aV3K57Auj87Ct4f4iuWHVNiw6dJrXMQ5qM7r
p679
aV3K57Auj87Ct4f4iuWHVNiw6dJrXMQ5qM7r
p680
atp681
a(Vjohn3298
p682
(lp683
V159cc49944def2b0da4d6c2b60f9e664
p684
atp685
a(VFindingTheBalance2
p686
(lp687
V1KLDzeWLrwM7DLkCGhLUTbDdwaypKyqExd
p688
atp689
a(VMccloudthesparrow
p690
(lp691
V1BrdF8C8DMg7A8oVA6SjMS6GMs8SBPyaDo
p692
atp693
a(Vajapanhit
p694
(lp695
V1GZTP4Y4qzLCcrAwRbtCGZPGETwsYsLbtW
p696
atp697
a(Vwhatsupnigga
p698
(lp699
V1HoRuL1825MRFGGXAV23K4TEK8atP7xeBZ
p700
atp701
a(VKontora
p702
(lp703
V3EhisXwQ6pzXJnPavzpFUHpbWDcQEpCgfb
p704
atp705
a(Vgrimeypigeon
p706
(lp707
V16thX2TYXpqA69fhsja3fdUQ3EuubGAPg9
p708
atp709
a(V_Mido
p710
(lp711
V15tYFmUV6wG4e1Gbi1buxBM9zSQzcWSkiK
p712
atp713
a(Vtheochino
p714
(lp715
V32TkdtErKNZKcccNcFynRRCG6WAoY1ofj9
p716
atp717
a(Vn1kof
p718
(lp719
V1GMxKSPa8poGjJ4xYczXnpvfxJTAJyk5cg
p720
atp721
a(Vn1kof
p722
(lp723
V15k5EApAtbWwBXpVyaurgduxhYyHYKqokV
p724
atp725
a(Vjacksparrow008
p726
(lp727
V1KwAn4fvPhxw7tNQ8Akc4Vp8UUVRgS7mCE
p728
atp729
a(VReloot
p730
(lp731
V12DqFX1xLjvukzcT4JTdJz3cBdRuNNeRFQ
p732
atp733
a(Vrya_nc
p734
(lp735
V3DkVqK1rUPZuj8EnPAbKmJ3A8xuZeTseeW
p736
aV3DkVqK1rUPZuj8EnPAbKmJ3A8xuZeTseeW
p737
atp738
a(VSurfinite
p739
(lp740
V1MqrY69iy8KAz9LzJqc7L8Ebpa7K82Qbk5
p741
atp742
a(Vgren17
p743
(lp744
V1NveJpEbuVjTkARDZHkGLycQQmzGG76djB
p745
aV194ZkFumhSVXxYXTyvwqLMvMT1VR887dHV
p746
atp747
a(VCheesedude666
p748
(lp749
V14zMJH9kbaoL1hqBtSfi276t795qyHDKwi
p750
aV14zMJH9kbaoL1hqBtSfi276t795qyHDKwi
p751
aV14zMJH9kbaoL1hqBtSfi276t795qyHDKwi
p752
aV14zMJH9kbaoL1hqBtSfi276t795qyHDKwi
p753
aV14zMJH9kbaoL1hqBtSfi276t795qyHDKwi
p754
aV14zMJH9kbaoL1hqBtSfi276t795qyHDKwi
p755
aV14zMJH9kbaoL1hqBtSfi276t795qyHDKwi
p756
aV14zMJH9kbaoL1hqBtSfi276t795qyHDKwi
p757
aV14zMJH9kbaoL1hqBtSfi276t795qyHDKwi
p758
atp759
a(Vhippophobe
p760
(lp761
V1A1zP1eP5QGefi2DMPTfTL5SLmv7DivfNa
p762
aV1A1zP1eP5QGefi2DMPTfTL5SLmv7DivfNa
p763
atp764
a(Vbilionbitcoins
p765
(lp766
V39nqXiBaruN6qxuk4hyuV1mbX8JZy2AXWk
p767
atp768
a(Vwendelrj
p769
(lp770
V3ASR4WyTUj27XFMpqjs5Akntrr27Kapppk
p771
atp772
a(VReviken
p773
(lp774
V1AXS9aMPNk6PWMSSk8fDAvwxbqatDw6jkr
p775
atp776
a(VZathodian
p777
(lp778
V1Kf5GPShe7D37h4VziPYNJjEeLGqUiSPBt
p779
atp780
a(Vaztecsilver
p781
(lp782
V14agZQqD9sLDpVyUHt9oHNukw7R31tiDKB
p783
atp784
a(Vjk9988
p785
(lp786
V3CLUqhBASDAttQSfkxP4dtDX8faE4Q1orJ
p787
atp788
a(Vdodgethem
p789
(lp790
V1P3YnD1QVDfmdwQLxAbxwreVHxjQipoDyn
p791
atp792
a(Vkapookah
p793
(lp794
V37cYoermod7KrZUQ52EMdPzKb61Kt6GmqP
p795
atp796
a(Vgivemepsy
p797
(lp798
V1Pwe8kXTPReZ1qQmQJ65hn3YFmtD9suRte
p799
atp800
a.