(lp0
(VBro-75
p1
(lp2
V19R8zFK9QE7RwqyCzFP8KJuZBmY2XKNDqU
p3
aV15mrx59JZJ5nLvDVwD6yMYecAgDfEshxmF
p4
aV168dzTZi68ix8rBMj87No55iZyh9AsbGAs
p5
aV1EEHFAzSxgTgqu6EoyRmzT1t6fWT2HovGv
p6
aV31zAYkF1zvKMddC5fcqWeGSHTR1dtewYo5
p7
atp8
a(Vwe_are_all_the_same
p9
(lp10
V13kSAzaxcpkKpBb5J5vYbNQe3EEyakMSgc
p11
aV1QLZkG1e5QefyDeFmT3htz631NYuvoZABe
p12
aV1HoYh5FD9GHS65Jg79mKZpQJjkUE7ai6Dc
p13
atp14
a(Vreadish
p15
(lp16
V17686a64065799190aeda3aa7e42f59e
p17
atp18
a(Vlimits_are_lies
p19
(lp20
V14S7zTpsH3wp3jFAd5fDVYU9UxQfJozuXW
p21
atp22
a(Vgianluca82
p23
(lp24
V1L6xQjRtGiKZLhGrqbWFQuTwPukbWJ1AEC
p25
atp26
a(Vnerimon
p27
(lp28
V1GDpqJc51MiVE6Zo6FnWAuBfhxtdkLX84S
p29
atp30
a(VBitcoinDevan
p31
(lp32
V1B4b5GnZP9Z93RzeRd12f4pFr7x9SFKf4i
p33
atp34
a(VKalin101
p35
(lp36
V1JryTePceSiWVpoNBU8SbwiT7J4ghzijzW
p37
atp38
a(VMildlySuppressed
p39
(lp40
V1JciCT8Y71FwXZUMFtckvnZNYY8W1Y5FyU
p41
atp42
a(VAnArchoz
p43
(lp44
V18seBSX6QzTdrrr8e7DvzwzfptPGsHm5yG
p45
atp46
a(Vflow_mass
p47
(lp48
V17ucwKSwAj74jcKx1tNhBDM18hk6d6V62j
p49
atp50
a(Vdrbitcorn
p51
(lp52
V375kfCHfV9cFyejG8Cuj2SC3iQGVn8APpM
p53
atp54
a(VBro-75
p55
(lp56
V19R8zFK9QE7RwqyCzFP8KJuZBmY2XKNDqU
p57
aV15mrx59JZJ5nLvDVwD6yMYecAgDfEshxmF
p58
aV168dzTZi68ix8rBMj87No55iZyh9AsbGAs
p59
aV1EEHFAzSxgTgqu6EoyRmzT1t6fWT2HovGv
p60
aV31zAYkF1zvKMddC5fcqWeGSHTR1dtewYo5
p61
atp62
a(Vwe_are_all_the_same
p63
(lp64
V13kSAzaxcpkKpBb5J5vYbNQe3EEyakMSgc
p65
aV1QLZkG1e5QefyDeFmT3htz631NYuvoZABe
p66
aV1HoYh5FD9GHS65Jg79mKZpQJjkUE7ai6Dc
p67
atp68
a(Vreadish
p69
(lp70
V17686a64065799190aeda3aa7e42f59e
p71
atp72
a(Vlimits_are_lies
p73
(lp74
V14S7zTpsH3wp3jFAd5fDVYU9UxQfJozuXW
p75
atp76
a(Vgianluca82
p77
(lp78
V1L6xQjRtGiKZLhGrqbWFQuTwPukbWJ1AEC
p79
atp80
a(VStupidJerks2
p81
(lp82
V13AbqEg6K5WtRUgmvn4aFRn6DwrXti6VSZ
p83
atp84
a(Vperfectperformance
p85
(lp86
V1D8ZCg2dHjTfLVGhbkCzffXsWE6ogkRMj9
p87
aV3LdN1vq4RtJrWcSzw2AVgjJsbY9woQd2Es
p88
aV16Bo1u5d5KuJpbFZ4RF62Vsi37wxCTiUsM
p89
aV39dn9QiBtgBU6UhNVxQi2F7wvk5Y31ZwMK
p90
atp91
a(Vbitcoinrecoverypls
p92
(lp93
V1E6eheMU6dHayVbkqrHKcPBRPphV5vLL6D
p94
atp95
a(Vreadish
p96
(lp97
V17686a64065799190aeda3aa7e42f59e
p98
atp99
a(Vmewald55
p100
(lp101
V1LTvYhbpur5nZMe3hifMGgq28MMBzRgNdC
p102
atp103
a(Vxxfpeter
p104
(lp105
V12PYBy89CUJkoJyar48E2Shys7GBMY4CxJ
p106
aV1EWFRmPgsq3oBWRg1J23oqV3X4ydCZFXiq
p107
atp108
a(V56KbKid
p109
(lp110
V18JCmLzKQoZydXspc6CPwovWVwYtUT7DCx
p111
aV18ZnbD5JQwdEJRwKrb34nXPu7J6pHN1CMR
p112
aV18ZnbD5JQwdEJRwKrb34nXPu7J6pHN1CMR
p113
aV16YiXuw4eaFVvpyhX7mYufwsj77LHrydUx
p114
aV16YiXuw4eaFVvpyhX7mYufwsj77LHrydUx
p115
aV1NndjYLXPgHmSFYEk5exCabGbcynzqpii4
p116
atp117
a(Vfork_your_mother
p118
(lp119
V143255RWcqQdbq9apZhfugSYFMC1TXi2qm
p120
atp121
a(Vlanden_schmitt
p122
(lp123
V3Bit1xA4apyzgmFNT2k8Pvnd6zb6TnwcTi
p124
atp125
a(Vpaberlance
p126
(lp127
V1N5KxMYvY4c76bz8jTHLjM5rhGPsRkqLnR
p128
atp129
a(Vcallosciurini
p130
(lp131
V3Bit1xA4apyzgmFNT2k8Pvnd6zb6TnwcTi
p132
aV3Bit1xA4apyzgmFNT2k8Pvnd6zb6TnwcTi
p133
atp134
a(Vaffinespaceship
p135
(lp136
V1B1QBDtFaJJK3iF3LypJJpZ5WozVCfjRpB
p137
atp138
a(VVeganSense
p139
(lp140
V37T7aqLAAD7kernbpBsSRo74qkSuePpeSH
p141
atp142
a(Vhacked123456
p143
(lp144
V1Thanks2ySqoJ58P3KE5WaoTytkvR5rhN
p145
aV12b7z73W3SXn34nLmEgpY6nxbHxJT4nN9m
p146
atp147
a(Vgjakovar
p148
(lp149
V19i5sRwtoYp5EKujVbm1LuShaFBEoWAxMd
p150
atp151
a(Vgimmeanaccountffs
p152
(lp153
V12bBfTPYfkwyQxrLmJWMGvsbgTriBbLYvr
p154
atp155
a(VConservativeSavage
p156
(lp157
V1ExP8bNdrtoNuoEL3UCtLMZAefRNNzp776
p158
atp159
a(Vbenbenthree
p160
(lp161
V19tzYBN4ku9xM9uPu3iaaL3Yt3QqmcLPP6
p162
atp163
a(VBitcoinInKor
p164
(lp165
V1Lc1jhXdsB7t1XpTdNbrchnxKQide9tMia
p166
atp167
a(VDeathThrasher
p168
(lp169
V1QGbpENUv3xJCtiqTcUPM1Vvnwx5FRR6uZ
p170
aV1QGbpENUv3xJCtiqTcUPM1Vvnwx5FRR6uZ
p171
atp172
a(Vawicher
p173
(lp174
V1HTtbPu2pwJq3CyCjd954DkdzGsXMztthB
p175
atp176
a(Vuno_anonymous
p177
(lp178
V15Z5YJaaNSxeynvr6uW6jQZLwq3n1Hu6RX
p179
atp180
a(Vgaboto83
p181
(lp182
V1DaHfXsoPfZ2jznJhB62vR3QEVFhhZ2tMR
p183
atp184
a(Vjeemond
p185
(lp186
V1HWea1oE6d9AUfQYxvQ8X467V3KiYqYEhJ
p187
aV37DpVjrkfhvDzcpDF42fuSVEatd2vHcJCY
p188
aV1MSVjj6itVtW7wadk1pjf4WUScCZsSqhxb
p189
atp190
a(Vjimbleme
p191
(lp192
V3HuhK4si8nHWNVnHUWsDotjG9mQJ2bPd6B
p193
aV3HuhK4si8nHWNVnHUWsDotjG9mQJ2bPd6B
p194
aV3HuhK4si8nHWNVnHUWsDotjG9mQJ2bPd6B
p195
atp196
a(VCraZy_LegenD
p197
(lp198
V1DiALBPC4rBHVV3BY9vcWo88NsN9MHXNsQ
p199
aV1DiALBPC4rBHVV3BY9vcWo88NsN9MHXNsQ
p200
atp201
a(VRHavar
p202
(lp203
V37LkKYcwtZv2bsEbGZhGtGdYwvWGmv3L6f
p204
atp205
a(VTomer47
p206
(lp207
V1Jeyrbt2vZahXAsuKfMK6ePVCqbx681tFW
p208
atp209
a(Vkrypt951
p210
(lp211
V3KJhFo6ENYnw1ehac91pGhNVED6LgPoR61
p212
aV3LnqRBvXPgZirRsJcPGkzyCgWj7H7t3UcR
p213
aV35xAUh2tJBx5JtfmyJFPhbrFB6L214WSPv
p214
aV3KJhFo6ENYnw1ehac91pGhNVED6LgPoR61
p215
atp216
a(VPatatoo
p217
(lp218
V1ad93182fe0b4f0b7be2e52ca12f9828
p219
atp220
a(VIkazaki
p221
(lp222
V12cbQLTFMXRnSzktFkuoG3eHoMeFtpTu3S
p223
aV12cbQLTFMXRnSzktFkuoG3eHoMeFtpTu3S
p224
atp225
a(VAthena-Patrick
p226
(lp227
V1G7n9PAmypGhrvHDT3KjtyWbbeoKXajEmd
p228
aV1G7n9PAmypGhrvHDT3KjtyWbbeoKXajEmd
p229
atp230
a(VNenaDaconte
p231
(lp232
V3PtXwbscV7yXzPpoey1Wpws78ZfkxxrfWs
p233
atp234
a(Vlerbe
p235
(lp236
V1LUq4863U6kaunFo92hu1wm1qRFxt7QF6X
p237
aV1KhaSCo1LEnproY6sKEWv3FoG7qR2gxhNG
p238
atp239
a(Vddepra
p240
(lp241
V1NVwNAqWy3YvJPSwdqPnFLL91mQe7EmZsb
p242
atp243
a(VJay27
p244
(lp245
V145c4WiNVSY2fyC5k2WXBWioQfRs4LyTjY
p246
aV145c4WiNVSY2fyC5k2WXBWioQfRs4LyTjY
p247
atp248
a(Vayoon424
p249
(lp250
V18EC97UDuL8vgofyrKmfNGjvddq8hefwVm
p251
atp252
a(Vmattjc882002
p253
(lp254
V1FVESHCZeU8BvZqQgy7EBeMwUWUejVcCch
p255
aV1BXJnYkQydy7oJpEkpxTtaQHoY93st8Zb3
p256
aV12Cm8jrjomdXXy3zq5wgBqKuGgatSrLT4i
p257
aV16iX9bjHP99Eq8TnUzQGvvsAS1T4qUAkcF
p258
atp259
a(Vnyaaaa
p260
(lp261
V3AX7T8fd6F2LsZyPdk6e6M1ddbzd5ZPbek
p262
atp263
a(Vcryptomoonlambo
p264
(lp265
V14Wz4SCuKwa81UBh1U7mcaCTxMsYLLuGZK
p266
atp267
a(V20karaktererastesore
p268
(lp269
V1HHWxiSKxXso119fptePXaVkkmCRUuz1R2
p270
atp271
a(Vj3lunt
p272
(lp273
V1632ms2o69acq7Kwp3dX2TyDpeHSijH3rq
p274
atp275
a(Vexcitmemor
p276
(lp277
V1PRiME51qppfiXuTZdmNxZnXeF1fFKdRSG
p278
atp279
a(VBricaroni
p280
(lp281
V1MrDv69ZbZq4VGkHpnAQCo2QqSfmuMvX55
p282
atp283
a(Vchloe2011
p284
(lp285
V1AS3hiKTnZbyLq8yywuF9tzoF8hgAb7kYm
p286
atp287
a(Vrmmbrthnm
p288
(lp289
V1N11UhsocNAqcYue4EZ1obv25xZqv4jpsB
p290
atp291
a(Vrain-is-wet
p292
(lp293
V1WriteySQufKZ2pVuM1oMhPrTtTVFq35j
p294
aV1NSwywA5Dvuyw89sfs3oLPvLiDNGf48cPD
p295
atp296
a(VLuisLima98
p297
(lp298
V13P7nwPpCHTELmL6iJcMcLyWgfn4xv7LYM
p299
atp300
a(VDumiCom
p301
(lp302
V18SuPxynHnuB7XJBgbTv1MGXtirBERjjQJ
p303
atp304
a(Vem-zee
p305
(lp306
V1DNWV8QhVXu7HjrFoT2o9u74z5UfKBxBna
p307
atp308
a(VAlan2420
p309
(lp310
V3xxxxxxxxxxxxxxxxxxxxxxxxxxxxxxxxx
p311
aV3xxxxxxxxxxxxxxxxxxxxxxxxxxxxxxxxx
p312
atp313
a(Vhrones
p314
(lp315
V1Gi9uberSWjPnWT6UUKePUFUWWryqUxaPk
p316
atp317
a(Vger868
p318
(lp319
V1FeexV6bAHb8ybZjqQMjJrcCrHGW9sb6uF
p320
atp321
a(VConch3r15
p322
(lp323
V1Cmw5jABpxaJgjCqqGmAg2ydLVQJbMQiYr
p324
atp325
a(Vallyougottado
p326
(lp327
V1LPc59qvBVaqRkJkaEuZjQhRnHrUwZhJ36
p328
atp329
a(Vkapponen
p330
(lp331
V17Bg4KwLRzBGcUyMenFhBTiaiiJSD6HBNi
p332
atp333
a(Velectriczap4
p334
(lp335
V16vNasUyGiRREmNYvqENhhGSXPQX1aXeCU
p336
atp337
a(Vtrollelogram
p338
(lp339
V1CHqq6xvbkecCqtgTrpga35oxqGR9mDDiN
p340
atp341
a(Vcryptohype
p342
(lp343
V14tbVkExcNEvhSfpn6cr9qjdAwTurLjHMc
p344
atp345
a(Vtaktokotkat
p346
(lp347
V1HLoD9E4SDFFPDiYfNYnkBLQ85Y51J3Zb1
p348
aV13CeYW5opbzf3eW9FNTWS4mnquQJ9bje5t
p349
atp350
a(Vpacolaro
p351
(lp352
V1Nae2EQdUZf4z9w2tz7hzQuHqngCoiY2CG
p353
aV1Nae2EQdUZf4z9w2tz7hzQuHqngCoiY2CG
p354
atp355
a(Vbubbahent
p356
(lp357
V1CEj1EiJZRxARMjjwV4qDWYLeDLuQwuXvQ
p358
atp359
a(Vcouscous200
p360
(lp361
V1EnVXBPB1r5Kak7wDg9E5Y3fjr82sLJePy
p362
atp363
a(Vdeadzavri
p364
(lp365
V1JX1kXQwvupQYJ9S593LJXMDCrMQ115MGg
p366
atp367
a(Vthrowme1955
p368
(lp369
V1KuEFp9KhgVJ2Ww4tNB1h1dNcghHify1j4
p370
atp371
a(Vtravisjd2012
p372
(lp373
V1D2NXX1mJcLUmwdRAihjdfQ6jP9ZdRHUvh
p374
atp375
a(VSir_Nom_de_Guerre
p376
(lp377
V1DGv99pkF8idxrmUbRN29TiVfMsvYp69cN
p378
atp379
a(VAmicableD
p380
(lp381
V1MNvaAXfZJV2JGuvCyfbUHhYEemSEEnm6a
p382
atp383
a(VCryptostuck
p384
(lp385
V1PjjAs7zCaQYHC6GivRb2rPs4ALSFWKEoP
p386
atp387
a(Vflopmayweather
p388
(lp389
V17sa44SZLsgzkpaz9gRiLcyujkX5YfAwE8
p390
atp391
a(Vbitcoinstarter
p392
(lp393
V1CgCM4qdEBpCLJt6yrbHn9w39J2gtd6HNt
p394
atp395
a(Vddbbccoopper
p396
(lp397
V1Fc2WDYQJ4MQqTJjdKqYdWuNWjdBk1aMxU
p398
atp399
a(VSpazzzMonkey
p400
(lp401
V3PDJMAMEH27QMT8cusCPXeJpdaryr9hrFQ
p402
atp403
a(Vpimpingken
p404
(lp405
V1G4CjzQzYJ2fty5RXc4U1LCrdKUrHtwxu5
p406
atp407
a(Velmoelmo69
p408
(lp409
V1BeSnUiYgYZyxdZ9HoC4CwuZJ8wTseE8DZ
p410
atp411
a(Vpimpingken
p412
(lp413
V1G4CjzQzYJ2fty5RXc4U1LCrdKUrHtwxu5
p414
atp415
a(VIntro24
p416
(lp417
V1HLmDVf7HhGmcmYop1eEKJQNHmrhjYJv49
p418
atp419
a(VKaloyan14
p420
(lp421
V1Dq9x9Dp3CPyLbypfrBJ5TvyZYJQNiv5zP
p422
atp423
a(VEik_NL
p424
(lp425
V1EEoToJ4eRt3hnpetvtDojpkHkznhDUEWP
p426
atp427
a(Vdementperson
p428
(lp429
V1JbZpEhHDuNqmquWyBu1zt5oorVsy28VMn
p430
atp431
a(Vjeffreyharmon
p432
(lp433
V1NqGsghoWMiGezrNyv7Abjoqmf4ftx7an4
p434
aV16H5t2a9vgTS2vRgu3nvmRneQymwV6XjFq
p435
atp436
a(VCriptoCrip
p437
(lp438
V1DdHgUu9mq99GvuS29ZpooaBxB1CLaEgwe
p439
atp440
a(Vgoodbtc
p441
(lp442
V1Enjoy1C4bYBr3tN4sMKxvvJDqG8NkdR4Z
p443
aV1FFirnLctcZxVx5otnLNZ4dDGUkMBM4vNr
p444
aV1NwKxTBrqrfa1YFLB44gyJEj2GanZ2qtDK
p445
aV1SochiWwFFySPjQoi2biVftXn8NRPCSQC
p446
atp447
a(VFeri22
p448
(lp449
V17vuFNsxYsuxvwciXiu8rB6xtCehdQeFWZ
p450
aV1ANDhPKBeYQ2GHUwwHaj88Xu1CXLVmS1p5
p451
aV14qgM72zX4G1vjSsja1MDLFe14aTVpjFAj
p452
aV14qgM72zX4G1vjSsja1MDLFe14aTVpjFAj
p453
aV1G6ErrdEDr4GeaAmv7Dvc7tpgBSp6CDjJJ
p454
aV1G6ErrdEDr4GeaAmv7Dvc7tpgBSp6CDjJJ
p455
aV1G6ErrdEDr4GeaAmv7Dvc7tpgBSp6CDjJJ
p456
atp457
a(Vurveshvasani
p458
(lp459
V15sNZxi1CJxY33tgaoFwKhbMHe2gpRemz2
p460
aV1NyWST8fCGDgg6cnjz7P3jjh8F16Si9VWH
p461
atp462
a(Vblxnmpr
p463
(lp464
V12cq4VnwTtiVwYubkP4qwckVHTjPGjHFts
p465
atp466
a(Vapeg989
p467
(lp468
V194CN5iEpu2L6eSb9DW3F6RunuNixUS41b
p469
atp470
a(VYoungShibe
p471
(lp472
V1LPJWQT2Lc4ffzAXQCGqCfJdFVDbLujW5z
p473
atp474
a(VThrowSway11
p475
(lp476
V1NCrV3mpU8dqe2bX1sxL3eAbU9X5T5B1FZ
p477
atp478
a(VSweetDPhilly
p479
(lp480
V1DN2QL99XNsfCK2TM4tGd48u6ZEAyL3cwx
p481
atp482
a(V247CryptoNews
p483
(lp484
V1BaoTezLSYP6RmSiJbAPL3fJHXSYteVJGz
p485
aV1DSCpHioR5L2Mg26SsSnmqXCrCcuFhkajD
p486
atp487
a(VaL_eX49
p488
(lp489
V1PppKVjqqtXNghuGH2ZCRCxwa8UbX7PFGe
p490
aV13Vp8xBWiiySpbopXaZBekcMNijqEnRwjf
p491
aV1FfBTYvMddXkrHg1spgM4XmMRpsvXoZRhY
p492
atp493
a(VPizzaBuyer
p494
(lp495
V3P2jxfzHTjxvq29P85nGddNKqUkcXfeiYi
p496
aV3P2jxfzHTjxvq29P85nGddNKqUkcXfeiYi
p497
aV3P2jxfzHTjxvq29P85nGddNKqUkcXfeiYi
p498
atp499
a(Vitsjustchuck
p500
(lp501
V1Bap2zxbsTNQbSio8MXy1QqbvVoNn5MrVc
p502
atp503
a(Vi_am_tom_riddle
p504
(lp505
V1MMKsRPXopb7pXSpt7Ne4VT1B8H7RpnJ99
p506
aV126QneminEM3hpTADJXMkQoVLjvBjTeyXT
p507
atp508
a(VAlpharazorOne
p509
(lp510
V173iLSxGY2Ze5aBc4kvafncjq4dHyxd3qP
p511
atp512
a(Vcryptogyan
p513
(lp514
V1KAk3ohEXEDSVPGiR2EkeLN3QU38FHtMmN
p515
atp516
a(Vwillma5
p517
(lp518
V152GGJEWR9dAKdELRnaGRSHWE2GnRJ6FyY
p519
atp520
a(Vdhtmldude
p521
(lp522
V1Pz4WTDy9GWiV4LqL7utr3vkZyqixRv2es
p523
atp524
a(VZachMorris44
p525
(lp526
V14qzdUF5fD9Kkh4zm9kk5eJ58nVt7hi6UP
p527
atp528
a(VWophala
p529
(lp530
V1CounterpartyXXXXXXXXXXXXXXXUWLpVr
p531
aV1111111111111111111114oLvT2
p532
atp533
a(VClorox_Energy_Drink
p534
(lp535
V1EBHA1ckUWzNKN7BMfDwGTx6GKEbADUozX
p536
aV18f1yugoAJuXcHAbsuRVLQC9TezJ6iVRLp
p537
aV14e7XAZbepQp9MXXzjNG3fNLoAUpaBAXHW
p538
aV1PnMfRF2enSZnR6JSexxBHuQnxG8Vo5FVK
p539
aV1KiVwxEuGBYavyKrxkLncJt2pQ5YUUQX7f
p540
aV1DiHDQMPFu4p84rkLn6Majj2LCZZZRQUaa
p541
atp542
a(Vdhtmldude
p543
(lp544
V1Pz4WTDy9GWiV4LqL7utr3vkZyqixRv2es
p545
atp546
a(Vlazyear
p547
(lp548
V12fj5Stp31SrYjtcN9T1jnXPGKUsEF92KD
p549
atp550
a(Vsoytendies
p551
(lp552
V1AxCKHendnZ16NBMbp5bzUcUfub6vX9PTn
p553
atp554
a(Vreflux8
p555
(lp556
V19DAvGg2NgNwNyNqmJ18me8GB1qD5DovE3
p557
atp558
a(Vbitsinabyte
p559
(lp560
V1Laz1SmrkCVHk6qBqW9TUTJ5seTwWhZMuz
p561
atp562
a(VCheesedude666
p563
(lp564
V14zMJH9kbaoL1hqBtSfi276t795qyHDKwi
p565
aV14zMJH9kbaoL1hqBtSfi276t795qyHDKwi
p566
aV14zMJH9kbaoL1hqBtSfi276t795qyHDKwi
p567
aV14zMJH9kbaoL1hqBtSfi276t795qyHDKwi
p568
aV14zMJH9kbaoL1hqBtSfi276t795qyHDKwi
p569
aV14zMJH9kbaoL1hqBtSfi276t795qyHDKwi
p570
aV14zMJH9kbaoL1hqBtSfi276t795qyHDKwi
p571
aV14zMJH9kbaoL1hqBtSfi276t795qyHDKwi
p572
aV14zMJH9kbaoL1hqBtSfi276t795qyHDKwi
p573
atp574
a(Vchipmixer
p575
(lp576
V1Lc7S3ATAq3fJUotjmJ9ey3v9BDSG3AgWw
p577
aV1Lc7S3ATAq3fJUotjmJ9ey3v9BDSG3AgWw
p578
atp579
a(VKoreanBTC
p580
(lp581
V1PqARoGzHhijnMY6j1j6zxZVLcyenPyzWf
p582
atp583
a(Vpcr3
p584
(lp585
V1DyV45JDNWPbsHH9MoeCHfpiDEEaWgi4zY
p586
atp587
a(Vjatsignwork
p588
(lp589
V1Mz7153HMuxXTuR2R1t78mGSdzaAtNbBWX
p590
atp591
a(Vdan897
p592
(lp593
V15wSzv9CgjGxz2vxrKRUUzEajeFccQZ8Ss
p594
atp595
a(VItschtulu
p596
(lp597
V1AtAEzLsSSuSjcjaSW5AzyH7hQaG6y1Dhf
p598
atp599
a(VDanJaay
p600
(lp601
V3MZDhuGDFTc5usWrdWE9rn2MR86TK9HTVM
p602
atp603
a(VBinaryResult
p604
(lp605
V17Q4MX2hmktmpuUKHFuoRmS5MfB5XPbhod
p606
atp607
a(VNeek82
p608
(lp609
V1PfWQ9vkBRdZFGy9kz88oMSKVqin4jK6DH
p610
aV17Sewo2LUShuTm1kGP46ytS3Q4K3FDzqwu
p611
atp612
a(Vthisisforyounow
p613
(lp614
V1LJF53qsjSDCgaWSRcR4ZeofnudfzRxCZy
p615
atp616
a(VMiladran
p617
(lp618
V1MnaKobJzpaCPCmr5i3twKtXKw5vTgXPfE
p619
aV14tFT5q6VEyxKGtuEgi26fGjWsUoijFT5p
p620
atp621
a(Vprivatebravo
p622
(lp623
V1QGYPwNRrBnr7iCvVminWTbx6fKpgQetPx
p624
atp625
a(Vbostrot
p626
(lp627
V1KE6PsUcRaiU1HaL3e3uuxWVjxioRSQ5P8
p628
atp629
a(VNhiyla
p630
(lp631
V1JXQUFPh4QrnDhL7tF5JCvwZMRvn1Esm9r
p632
atp633
a(Vjlcooke
p634
(lp635
V1L75eRMgeCwAxEjD1oWXjLgud9jxwxm34u
p636
aV1L75eRMgeCwAxEjD1oWXjLgud9jxwxm34u
p637
aV1L75eRMgeCwAxEjD1oWXjLgud9jxwxm34u
p638
aV1F4JZYZr4rQhFeJ9P4N9ZL2cHe5cPsbnxw
p639
aV1F4JZYZr4rQhFeJ9P4N9ZL2cHe5cPsbnxw
p640
aV16jY8U2PodHZ79jKkSvjzVYoAjVQTpu6Q8
p641
aV16jY8U2PodHZ79jKkSvjzVYoAjVQTpu6Q8
p642
atp643
a(Vmplacona
p644
(lp645
V1DYfZD8CRtBQQ3kEYb261Q6aywtK6zbZUu
p646
aV14N9ydxNRhDxkKJvXg1vjqS3gh884vG3UM
p647
atp648
a(Vcrrdlx
p649
(lp650
V19rMJGZu3uSRaPapLnzJY6DvR76GfpNPRQ
p651
atp652
a(VSigmundGo
p653
(lp654
V19N1ymPRrnDsiAgaMeRCf288QcwWM1fiR
p655
aV19N1ymPRrnDsiAgaMeRCf288QcwWM1fiR
p656
aV1NUebnpXh3XBVdr68oqdJYyAQEUMw6JJCH
p657
aV1NUebnpXh3XBVdr68oqdJYyAQEUMw6JJCH
p658
atp659
a(Vwise_young_gentleman
p660
(lp661
V12EJ4xuBnXCnNN8PdZyitEn4W5m7o14J66
p662
atp663
a(VPuffycheeses
p664
(lp665
V1DtrjNKwyT1htLVRZikWtUjm6Npg3kk6C9
p666
atp667
a(Vpocketleg
p668
(lp669
V19dMSGr5FKFnM7Evg9a9aksNMqbCR4BCJb
p670
atp671
a(Vsfsilks
p672
(lp673
V1EmBemXapuxrYDgS5PE2FskozKZSnXi2SJ
p674
atp675
a(Vbtc000x
p676
(lp677
V3Boz555aX9ZB674Dv4CPA6VFLhK4zuUnXg
p678
aV3K57Auj87Ct4f4iuWHVNiw6dJrXMQ5qM7r
p679
aV3K57Auj87Ct4f4iuWHVNiw6dJrXMQ5qM7r
p680
atp681
a(Vjohn3298
p682
(lp683
V159cc49944def2b0da4d6c2b60f9e664
p684
atp685
a(VFindingTheBalance2
p686
(lp687
V1KLDzeWLrwM7DLkCGhLUTbDdwaypKyqExd
p688
atp689
a(VMccloudthesparrow
p690
(lp691
V1BrdF8C8DMg7A8oVA6SjMS6GMs8SBPyaDo
p692
atp693
a(Vajapanhit
p694
(lp695
V1GZTP4Y4qzLCcrAwRbtCGZPGETwsYsLbtW
p696
atp697
a(Vwhatsupnigga
p698
(lp699
V1HoRuL1825MRFGGXAV23K4TEK8atP7xeBZ
p700
atp701
a(VKontora
p702
(lp703
V3EhisXwQ6pzXJnPavzpFUHpbWDcQEpCgfb
p704
atp705
a(Vgrimeypigeon
p706
(lp707
V16thX2TYXpqA69fhsja3fdUQ3EuubGAPg9
p708
atp709
a(V_Mido
p710
(lp711
V15tYFmUV6wG4e1Gbi1buxBM9zSQzcWSkiK
p712
atp713
a(Vtheochino
p714
(lp715
V32TkdtErKNZKcccNcFynRRCG6WAoY1ofj9
p716
atp717
a(Vn1kof
p718
(lp719
V1GMxKSPa8poGjJ4xYczXnpvfxJTAJyk5cg
p720
atp721
a(Vn1kof
p722
(lp723
V15k5EApAtbWwBXpVyaurgduxhYyHYKqokV
p724
atp725
a(Vjacksparrow008
p726
(lp727
V1KwAn4fvPhxw7tNQ8Akc4Vp8UUVRgS7mCE
p728
atp729
a(VReloot
p730
(lp731
V12DqFX1xLjvukzcT4JTdJz3cBdRuNNeRFQ
p732
atp733
a(Vrya_nc
p734
(lp735
V3DkVqK1rUPZuj8EnPAbKmJ3A8xuZeTseeW
p736
aV3DkVqK1rUPZuj8EnPAbKmJ3A8xuZeTseeW
p737
atp738
a(VSurfinite
p739
(lp740
V1MqrY69iy8KAz9LzJqc7L8Ebpa7K82Qbk5
p741
atp742
a(Vgren17
p743
(lp744
V1NveJpEbuVjTkARDZHkGLycQQmzGG76djB
p745
aV194ZkFumhSVXxYXTyvwqLMvMT1VR887dHV
p746
atp747
a(VCheesedude666
p748
(lp749
V14zMJH9kbaoL1hqBtSfi276t795qyHDKwi
p750
aV14zMJH9kbaoL1hqBtSfi276t795qyHDKwi
p751
aV14zMJH9kbaoL1hqBtSfi276t795qyHDKwi
p752
aV14zMJH9kbaoL1hqBtSfi276t795qyHDKwi
p753
aV14zMJH9kbaoL1hqBtSfi276t795qyHDKwi
p754
aV14zMJH9kbaoL1hqBtSfi276t795qyHDKwi
p755
aV14zMJH9kbaoL1hqBtSfi276t795qyHDKwi
p756
aV14zMJH9kbaoL1hqBtSfi276t795qyHDKwi
p757
aV14zMJH9kbaoL1hqBtSfi276t795qyHDKwi
p758
atp759
a(Vhippophobe
p760
(lp761
V1A1zP1eP5QGefi2DMPTfTL5SLmv7DivfNa
p762
aV1A1zP1eP5QGefi2DMPTfTL5SLmv7DivfNa
p763
atp764
a(Vbilionbitcoins
p765
(lp766
V39nqXiBaruN6qxuk4hyuV1mbX8JZy2AXWk
p767
atp768
a(Vwendelrj
p769
(lp770
V3ASR4WyTUj27XFMpqjs5Akntrr27Kapppk
p771
atp772
a(VReviken
p773
(lp774
V1AXS9aMPNk6PWMSSk8fDAvwxbqatDw6jkr
p775
atp776
a(VZathodian
p777
(lp778
V1Kf5GPShe7D37h4VziPYNJjEeLGqUiSPBt
p779
atp780
a(Vaztecsilver
p781
(lp782
V14agZQqD9sLDpVyUHt9oHNukw7R31tiDKB
p783
atp784
a(Vjk9988
p785
(lp786
V3CLUqhBASDAttQSfkxP4dtDX8faE4Q1orJ
p787
atp788
a(Vdodgethem
p789
(lp790
V1P3YnD1QVDfmdwQLxAbxwreVHxjQipoDyn
p791
atp792
a(Vkapookah
p793
(lp794
V37cYoermod7KrZUQ52EMdPzKb61Kt6GmqP
p795
atp796
a(Vgivemepsy
p797
(lp798
V1Pwe8kXTPReZ1qQmQJ65hn3YFmtD9suRte
p799
atp800
a(VZiggy08036
p801
(lp802
V1EmG8dtLeQ14hCZpp8Eomzh27vSZnhqRg8
p803
aV1EmG8dtLeQ14hCZpp8Eomzh27vSZnhqRg8
p804
atp805
a(VArxi
p806
(lp807
V1Q6yk1YJhmkdL5PSvssPng9tEneGZJ8d8y
p808
aV15faHU4T6QqmJhP1s7AZwRFoTwndvVZWfw
p809
atp810
a(Vskattyman14
p811
(lp812
V1NE8GanXStU8wQXK2cWqQ2ShVthGafFyVz
p813
atp814
a(VJDTexarkana
p815
(lp816
V3FSSriAtPUGmyN7sFBebntq6PTiNFUJTdj
p817
atp818
a(Vtheartlav
p819
(lp820
V1NS17iag9jJgTHD1VXjvLCEnZuQ3rJDE9L
p821
aV1NS17iag9jJgTHD1VXjvLCEnZuQ3rJED9L
p822
atp823
a(Vstupidyesiam
p824
(lp825
V3EyWFmBtfNExSkTV3qyAF8Wcik9FxkVQYa
p826
atp827
a(VSKiliman
p828
(lp829
V1BFEFnEtUfVvNHQ92cNEW3ZfynM58G183h
p830
atp831
a(Viuqerfsodp9ifjaposdf
p832
(lp833
V183yPBB3fMw5qwdYa7yp5L7xLEXTq6KsF5
p834
aV1LrWVWfaYypyXALw3tAvisevZoEKPHMm75
p835
aV1PB4xXUFyy4kSNqroCBVaQuCuw9VcN3be4
p836
atp837
a(Vbtcsa
p838
(lp839
V1FNviVh1jG7cx91oxdn4ApgtBsW7Gictab
p840
atp841
a(Vhkopman
p842
(lp843
V17ar9duUGZneeRJummP4aRwL2J2ZgzUKUS
p844
aV19CJYpf96kTqtkeUSdobbaJbvXyTrToHWV
p845
aV1KDCasHMhDkLppp1fGSHNH95yb9We9jy1n
p846
atp847
a(VAmichateur
p848
(lp849
V1AEbhwgdx5kfKycdSBFANJEvpAZ2WrDjG8
p850
atp851
a(VBoneyg001
p852
(lp853
V114oTCwiukPBmYRBDpNhht17E1TPJEHLbv
p854
atp855
a(Vgurb-it
p856
(lp857
V129Ls1oFCBXdMjBXP4ZAgeC3H6CuPgtGkB
p858
atp859
a(Vthamerphpmaster
p860
(lp861
V1BS3caAYJH5LTKprkbvhkSLVUhpa9QsvMp
p862
aV1BS3caAYJH5LTKprkbvhkSLVUhpa9QsvMp
p863
atp864
a(VBurgsFresh
p865
(lp866
V1F4EUFXGRkNpSTheJe2gABnHuF2ZTDkbD
p867
atp868
a(Vthe_bob
p869
(lp870
V1491KpNqoY1vGE2Rzdd76BCsuXK7QepNGU
p871
atp872
a(VOdiacresU
p873
(lp874
V19G9ARPs4kCecvVRxt8FWT9BMy5dGHHxSQ
p875
atp876
a(Vcoinagecrypt
p877
(lp878
V1GT3jyewVbxfoSBHdEGfNHMnE7kmY7qYCc
p879
aV1GT3jyewVbxfoSBHdEGfNHMnE7kmY7qYCc
p880
atp881
a(Vstephend9
p882
(lp883
V1JBFtXSEeVnTdo5XKri9qXrhtrjnevq66x
p884
atp885
a(Veminogrande
p886
(lp887
V17TpYUYpcxHwM7mCwoqoc1Eb7V5fPBtoK2
p888
atp889
a(Vkralleo
p890
(lp891
V1DGXFjWuSSM5ybwFWkuBrBkSK8D4gj2DmH
p892
atp893
a(V105kgSysAdmin
p894
(lp895
V1B2siSMFKVKeVcnGzXuDuqmougmWS4mCow
p896
atp897
a(Vskabaw
p898
(lp899
V1FRKmPBqBymnZA3i7muS2YPwdrTbkF4EcY
p900
atp901
a(Vlordmethh
p902
(lp903
V16YPVrfNemAk2TiK1TXQMbqE3SEb1GAa5e
p904
atp905
a(V_Citizen_Erased_
p906
(lp907
V115p7UMMngoj1pMvkpHijcRdfJNXj6LrLn
p908
aV12t9YDPgwueZ9NyMgw519p7AA8isjr6SMw
p909
aV1QAc9S5EmycqjzzWDc1yiWzr9jJLC8sLiY
p910
aV115p7UMMngoj1pMvkpHijcRdfJNXj6LrLn
p911
aV13AM4VW2dhxYgXeQepoHkHSQuy6NgaEb94
p912
aV15zGqZCTcys6eCjDkE3DypCjXi6QWRV6V1
p913
atp914
a(V_willish
p915
(lp916
V12t9YDPgwueZ9NyMgw519p7AA8isjr6SMw
p917
aV115p7UMMngoj1pMvkpHijcRdfJNXj6LrLn
p918
aV13AM4VW2dhxYgXeQepoHkHSQuy6NgaEb94
p919
atp920
a(Vdarkvador1900
p921
(lp922
V1PQJC7wN5PbenKHmTbqRbdQYbvmPUar9Hm
p923
atp924
a(VFerriestaPatronum
p925
(lp926
V115p7UMMngojfpMvkpHijcRdfJNXj6LrLn
p927
aV115p7UMMngoj1pMvkpHijcRdfJNXj6LrLn
p928
atp929
a(VRoux85
p930
(lp931
V169kCEKrBvfWrsuuVbUyD3Aaf8FeUd6nZf
p932
atp933
a(VSuaveMariMagno
p934
(lp935
V13AM4VW2dhxYgXeQepoHkHSQuy6NgaEb94
p936
aV12t9YDPgwueZ9NyMgw519p7AA8isjr6SMw
p937
aV115p7UMMngoj1pMvkpHijcRdfJNXj6LrLn
p938
atp939
a(Vburtonash
p940
(lp941
V115p7UMMngoj1pMvkpHijcRdfJNXj6LrLn
p942
aV12t9YDPgwueZ9NyMgw519p7AA8isjr6SMw
p943
aV13AM4VW2dhxYgXeQepoHkHSQuy6NgaEb94
p944
atp945
a(VTOCICI
p946
(lp947
V13SNqhQJx6NHYhuoAyZFfoWCSvaDszDLo7
p948
atp949
a(Vkingofvodka
p950
(lp951
V33aJgsFT1zzVGx1dpudF2gNaCiS6VKju55
p952
atp953
a(Vroyalecraig
p954
(lp955
V1BtLK6bmVBhXYHyuZsHLoUaLGUE82Mw4TA
p956
atp957
a(Vaddrstore
p958
(lp959
V1DonationLd73pZbX3fAitt4JZv5kdrZEt
p960
atp961
a(VSaltedSouto
p962
(lp963
V1bd89f1a677f4b0632f3cb4cfbcc07f5
p964
atp965
a(Vcript0currency
p966
(lp967
V1K2SXgApmo9uZoyahvsbSanpVWbzZWVVMF
p968
atp969
a(Vaadfg
p970
(lp971
V12jEeJgSHNhE4b1F7Z3G9qUYAaXraHEWTw
p972
atp973
a(VVanklow
p974
(lp975
V16aZSyKrWs8CAkw1HCw7buubeEGsjF4eAi
p976
atp977
a(VGothamDota
p978
(lp979
V155wwYNE8hh1iFWf4kjKjFgZhpoWtg69ZR
p980
atp981
a(Vappt454
p982
(lp983
V3PcuXfbC4PE4WKWsH54jAPZq35y1R4f1Bi
p984
aV3PcuXfbC4PE4WKWsH54jAPZq35y1R4f1Bi
p985
aV3PcuXfbC4PE4WKWsH54jAPZq35y1R4f1Bi
p986
aV3PcuXfbC4PE4WKWsH54jAPZq35y1R4f1Bi
p987
atp988
a(VdCodePonerology
p989
(lp990
V3QQB6AWxaga6wTs6Xwq8FYppgrGinGu15f
p991
aV3QQB6AWxaga6wTs6Xwq8FYppgrGinGu15f
p992
aV3QQB6AWxaga6wTs6Xwq8FYppgrGinGu15f
p993
atp994
a(Vluke-jr
p995
(lp996
V333479252069bf6a6711046e6731d730
p997
atp998
a(Vgridchain
p999
(lp1000
V16a2pR6UDyeqv1ArQ8hGXJgqVCWfoqbdUr
p1001
aV17MtkE39Ms9gcZBdAWS6QQCyd7qrKdVdzo
p1002
aV1KNgyBny6S5sA9fxU8QJC3bLFHdDAKAabU
p1003
aV12RrvE59LUgcRdgE5W4iPpjcr66GtW6YgV
p1004
aV1EMChJbxPW7vTLyaTh3TBVMm9i8BUPFA1i
p1005
atp1006
a(VCreative310
p1007
(lp1008
V197QzcP7jBEmRzo1An97PZxFEbFEiy1xbd
p1009
atp1010
a(Vspacetime2
p1011
(lp1012
V3JNQQ4VhtwJwAUEVLK53ReioD1kS7AEjuk
p1013
atp1014
a(Vcaveatemptor25
p1015
(lp1016
V155fzsEBHy9Ri2bMQ8uuuR3tv1YzcDywd4
p1017
atp1018
a(Viikes12
p1019
(lp1020
V1BJrdX1kJTG1JqynkfoRGAPMCV8ze3ThMR
p1021
atp1022
a(VAjm6753
p1023
(lp1024
V1CSsDhNpKiQageRn927bt6zf2amc5TtoMF
p1025
atp1026
a(VBTGoner2017
p1027
(lp1028
V1HnG71E2ttShqM7ei8AY6t7CzK2xebE7Wi
p1029
atp1030
a(VElectric_Falcon
p1031
(lp1032
V1GvzBKEVyMnx8pnagC2FjujmcDp1mEXVyM
p1033
atp1034
a(Vohsnapitsjaycee
p1035
(lp1036
V1CwZSnnKTAwsLh9ot7ABWPonxDo7zW4FXE
p1037
atp1038
a(Vflat5
p1039
(lp1040
V19FkmhHEzgCXKfALXhahuCTDVcRnxT41MK
p1041
atp1042
a(VKarmaa
p1043
(lp1044
V12341234123412341234123412341234
p1045
atp1046
a(Vjimmywales1
p1047
(lp1048
V18FXM5GxSAPtEHK5cXtZhW957vwxReg5sJ
p1049
atp1050
a(VProudCakeOwner
p1051
(lp1052
V1LvevETn7BLSsHkYbUXMBVmACAQ1eDYR6m
p1053
aV1PRMRqvqqTR5rEvEnGrF9F3XVYzJLADEmw
p1054
aV1JcEMLcCQHkeNcxxPfM99LzC5bSuGWksmj
p1055
atp1056
a(VEmperorCuntCrusher
p1057
(lp1058
V1MPgCr9vWQNWHecRjYdCZ4rShD6mUgBSvD
p1059
atp1060
a(VFlunnel
p1061
(lp1062
V1GuRjB13aLSrW78eWVVVohtJc3SXqdQGyo
p1063
atp1064
a(VKasukoi
p1065
(lp1066
V181BY1m83Lj8PStELx3YdsKNZMZmfp6Wtg
p1067
atp1068
a(Vscientized
p1069
(lp1070
V16UwLL9Risc3QfPqBUvKofHmBQ7wMtjvM
p1071
atp1072
a(VFieryXJoe
p1073
(lp1074
V1J4KN1xF3jB9QiNpVtFg7AQtbD71h1kNbX
p1075
atp1076
a(Vbubshoe
p1077
(lp1078
V1F1tAaz5x1HUXrCNLbtMDqcw6o5GNn4xqX
p1079
atp1080
a(VGr1mz13
p1081
(lp1082
V1NQFwEGBb43zCEKnqNJ5sg9zq4RRsakD1e
p1083
aV1NQFwEGBb43zCEKnqNJ5sg9zq4RRsakD1e
p1084
aV1NQFwEGBb43zCEKnqNJ5sg9zq4RRsakD1e
p1085
atp1086
a(VGr1mz13
p1087
(lp1088
V1NQFwEGBb43zCEKnqNJ5sg9zq4RRsakD1e
p1089
aV1NQFwEGBb43zCEKnqNJ5sg9zq4RRsakD1e
p1090
aV1NQFwEGBb43zCEKnqNJ5sg9zq4RRsakD1e
p1091
atp1092
a(Vsaalda
p1093
(lp1094
V342YAKXKrBVoK6JCvc3hVy1t7XE38JBSyT
p1095
atp1096
a(Vzysr90
p1097
(lp1098
V1Ci2XgF9vbuj2MMt26KtgxSQg9wUFdUMWh
p1099
atp1100
a(VRHavar
p1101
(lp1102
V38fDdi6VRdLBj78iFgJTSgautnPqkyYZd2
p1103
aV17yCiAc3sj1odwSH8ads24DykG789xDWJy
p1104
atp1105
a(VAltF
p1106
(lp1107
V1bitcoineateraddressdontsendf59kue
p1108
aV1bitcoineateraddressdontsendf59kue
p1109
atp1110
a(VDabaDUda
p1111
(lp1112
V17k2WwCDwoAjCAy2FEGEYHgRx3NaEptdGi
p1113
atp1114
a(VCryptolution
p1115
(lp1116
V18eXmgR5Svoqqa6PaYVrKvbH6hvrp5xe3A
p1117
aV18eXmgR5Svoqqa6JXSMmbNaD4Cs5ThcV1P
p1118
atp1119
a(Vspacejames
p1120
(lp1121
V1AoByJUUMbFx8Jg434urb2dcqo1DZugwQw
p1122
atp1123
a(VCONNECT-im
p1124
(lp1125
V18187F2AvfMRe9SrWL52z3PRqGzoEa75EF
p1126
atp1127
a(Vsoloq11
p1128
(lp1129
V3EqJm7otePLhYcB9KVNv31gJKvTXjk4E9g
p1130
atp1131
a(Veffortlesslykanye
p1132
(lp1133
V16a6ctXdjuNQ1S3yKSVZSD5nVSPNZJJjxW
p1134
atp1135
a(Vcontractmine
p1136
(lp1137
V1AN4pDgC9YoLDdYwtmtuSk9hiW6K6cKj8J
p1138
atp1139
a(Vitworks123
p1140
(lp1141
V1F78bRJA23aHbk4pFjLp9wXVMLkzmYVZMy
p1142
atp1143
a(VBinaryResult
p1144
(lp1145
V17Q4MX2hmktmpuUKHFuoRmS5MfB5XPbhod
p1146
atp1147
a(VnononononBTC
p1148
(lp1149
V1FqKi2QLMZnLUKeuwxUJJoZS5vwEgNkRWN
p1150
atp1151
a(V0-zer-0
p1152
(lp1153
V1Ecd9eHdTwspG5YpRpXoLfGAhGjEGVySr1
p1154
aV1AKjQCDsYBesGE1V7UGdGadbRop41py1ch
p1155
atp1156
a(Vdavetheraver69
p1157
(lp1158
V1evYfF3ygmCGgS5ynpRJrPbE9H1TCjzpv
p1159
aV379cDpamgMaS4BYtiHF6FP5JA6LVmvM9AU
p1160
aV379cDpamgMaS4BYtiHF6FP5JA6LVmvM9AU
p1161
aV379cDpamgMaS4BYtiHF6FP5JA6LVmvM9AU
p1162
aV379cDpamgMaS4BYtiHF6FP5JA6LVmvM9AU
p1163
atp1164
a(Vbtc_broker
p1165
(lp1166
V19Mz2o9RDABT74SA9njZqMtJXKEzj2qUoH
p1167
atp1168
a(VAnthrax809
p1169
(lp1170
V1NY11d2EiFvxWmExwv6iPR8pGjZewhnW2o
p1171
atp1172
a(Vimdumbandlostbtc
p1173
(lp1174
V14E9emSpC1uwaJr6jr5LJyxe1YNu1S4g2F
p1175
atp1176
a(VI-am-the-noob
p1177
(lp1178
V19656Uwdwko5RjtnuwQENpjBwE3ChzD59v
p1179
aV19656Uwdwko5RjtnuwQENpjBwE3ChzD59v
p1180
atp1181
a(Vdigitalmediaspecial
p1182
(lp1183
V15wPfFqkBYSeTEn62KK6dJVECWFjxF98Z1
p1184
aV16firc3qZU97D1pWkyL6ZYwPX5UVnWc82V
p1185
aV16firc3qZU97D1pWkyL6ZYwPX5UVnWc82V
p1186
atp1187
a(Vpimpingken
p1188
(lp1189
V16GP7fynpDwZ5oJzxoaBgSznPXqffNpNdt
p1190
atp1191
a(VLarry4life
p1192
(lp1193
V1FvNZ2VZ6pT3HkGqcTNHEdse679amGndMA
p1194
atp1195
a(Vssg691
p1196
(lp1197
V15AxG8xoxP8AsFmBVtxE1ijz7cNS5AL52u
p1198
aV15AxG8xoxP8AsFmBVtxE1ijz7cNS5AL52u
p1199
aV1JKFiPLzW23ZKJ6FsvTsrCc9W91skzTp8n
p1200
atp1201
a(Ventropyjs
p1202
(lp1203
V14jwn3d3Nsyiw9oxJFNU8f4hxwPX7cMDE3
p1204
atp1205
a(Vspacetime2
p1206
(lp1207
V3JNQQ4VhtwJwAUEVLK53ReioD1kS7AEjuk
p1208
atp1209
a(VUKcoin
p1210
(lp1211
V3QQB6AWxaga6wTs6Xwq8FYppgrGinGu15f
p1212
atp1213
a(Vasilv342
p1214
(lp1215
V19LYUf4NSvmAq5ZbJKTAHWYbMFz4uj2AYf
p1216
aV1E1vDcXnYEnhP8jaJWbSnLDThEM5rmXLFn
p1217
aV19LYUf4NSvmAq5ZbJKTAHWYbMFz4uj2AYf
p1218
atp1219
a(Veddy159357
p1220
(lp1221
V18tAb3QFFBFxjRt8t29RcnJ1W23XiXFvuu
p1222
atp1223
a(Vralfciff
p1224
(lp1225
V1Joi5du8txRbxTRKXSVQ28fhd9GsdgLKiz
p1226
atp1227
a(VJwin970
p1228
(lp1229
V1NAL7DxbVwrYU81j5r6M6RvnBb2gZNq8kA
p1230
aV36qnrTPHRo4TjM3u7wjPQPyDvjAkx3Pkj2
p1231
aV1GMh491B9XQqfyhUwXMRuG7qTP2m5efLB
p1232
aV1LNEMb1Aajp1fKK2yCZ3N6ckDYmegK1d3s
p1233
aV1NAL7DxbVwrYU81j5r6M6RvnBb2gZNq8kA
p1234
atp1235
a(Vpangaea67
p1236
(lp1237
V1K8TKc2P7FKfM5ZL7i7gTAPYSNW1994B8J
p1238
atp1239
a(VHotwir3
p1240
(lp1241
V1KFvnSS2aE2uZpqJ8UEDYxZkc7mRC7SecV
p1242
atp1243
a(VNiemiV
p1244
(lp1245
V1FpEL7U1BVwnKNQevLgRr8avnRbamuZmTf
p1246
atp1247
a(VToFishNChips
p1248
(lp1249
V1L4pjHFrdfDjmdV1vnJYXXjKhuPJnPd9h3
p1250
atp1251
a(Vgsosoft
p1252
(lp1253
V19ybSHessD9zUM3NSgjpa7prTbqYJ177oS
p1254
atp1255
a(VSrPeixinho
p1256
(lp1257
V3562f867843a480ec551ad1a19fe5025
p1258
atp1259
a(Vanacoinda
p1260
(lp1261
V1MGaUVjgPxH4bk1kc724iEsQ2CEh6ut6eE
p1262
atp1263
a(Vmaaku7
p1264
(lp1265
V35Snmmy3uhaer2gTboc81ayCip4m9DT4ko
p1266
atp1267
a(Vchek2fire
p1268
(lp1269
V15tYFmUV6wG4e1Gbi1buxBM9zSQzcWSkiK
p1270
atp1271
a(Vemsiak
p1272
(lp1273
V1AsPzC53491jKTvwrUEZnvF6cgtXDWD8mX
p1274
aV1AsPzC53491jKTvwrUEZnvF6cgtXDWD8mX
p1275
aV1AsPzC53491jKTvwrUEZnvF6cgtXDWD8mX
p1276
aV1Dcu2y3eefKRVkJY7JSJeaouRyEnBYaWJt
p1277
aV1N7afkxPv9b4CRaTwecqwHisRH7yMUPQvF
p1278
atp1279
a(Vcorey_phillips
p1280
(lp1281
V19kmWyHLk3gNi9ZGewHbWncTHH9xjr9xjR
p1282
atp1283
a(Vscheistermeister
p1284
(lp1285
V1EXeqJsJz9HZMSS5ELaGZQfmGmesHG99Zf
p1286
aV1ER1RXn8v5ao7nt4EPRH7oL328m9poocrS
p1287
atp1288
a(Vbiukuw2
p1289
(lp1290
V1H53G3ucEnfoCjresBSS6JEYojue17NBqN
p1291
atp1292
a(Vblock2676
p1293
(lp1294
V1BEAp84rY4U2MJNmUkaF9BNavTEEG3ZSfd
p1295
atp1296
a(VMordan
p1297
(lp1298
V1LMkCurz7sWnue87BbWo8JH2xC8RjTXoDP
p1299
atp1300
a(Vapokerplayer123
p1301
(lp1302
V12zLZ3VvNLom3RH2eRLTj1sQxYANzzxLkL
p1303
atp1304
a(VBlockchainfuckedme
p1305
(lp1306
V12HarwPfx39Q9LhA7xvQTe2dTQJrPPo1ax
p1307
atp1308
a(Vin3rsha
p1309
(lp1310
V1AYtnRppWM7tWQaVLpm7TvcHKrjKxgCRvX
p1311
aV1KLahQtqDNAXvrjNyfvgSBtAhwco5ZxLp4
p1312
atp1313
a(Vphor2zero
p1314
(lp1315
V1LyJVW4E7yDF2MWzf3brb92Q5TGeeQxMpm
p1316
atp1317
a(Vgoodjob_goodeffort
p1318
(lp1319
V1CNSRnGNcJqcgcmkYWSBALPFwR9NY1Eg8F
p1320
atp1321
a(VKinolva
p1322
(lp1323
V1FeexV6bAHb8ybZjqQMjJrcCrHGW9sb6uF
p1324
atp1325
a(VHuXu7
p1326
(lp1327
V17TZNT8CBPzUPDfKTXC25RQHrW6M2q6kRo
p1328
aV1E7omVoKbNPmDfFxPfZkAotQ65dFRsNX9y
p1329
atp1330
a(VCL0N
p1331
(lp1332
V1LoMm18jjjWCu3rhkZAJVzToPyY16hr2yX
p1333
atp1334
a(Vfoxh8er
p1335
(lp1336
V1GQmweAj7Lqwzs4eD8u6DjGA8da2kaG93S
p1337
atp1338
a(VxxDan_Evansxx
p1339
(lp1340
V1JGfXtMAyuNCXuvnmPXctKP2AG9aPME79N
p1341
atp1342
a(Vjohnhardy-seebitcoin
p1343
(lp1344
V1CLNgjuu8s51umTA76Zi8v6EdvDp8q
p1345
aV1N62SRhBioRFrigS5eJ8kR1WYcfcYr
p1346
atp1347
a(Vbitcoinnooblol
p1348
(lp1349
V1CnMjE3gcR5784hW61FNWyseSmHA27F4yT
p1350
atp1351
a(Vpk_ing
p1352
(lp1353
V36973ebac0b44b6ba60eabeb090f3ac2
p1354
atp1355
a(Vpistolpete0406
p1356
(lp1357
V1GLHVUjk6VA82kHJomNuanpTYKAg3QPEk4
p1358
atp1359
a(VAmmeyroger1
p1360
(lp1361
V14kQfsxstFMjhL1RJAngoiEU13BaVUVjbS
p1362
atp1363
a(Vjonstern
p1364
(lp1365
V1J37CY8hcdUXQ1KfBhMCsUVafa8XjDsdCn
p1366
atp1367
a(V58iwh8_throwaway
p1368
(lp1369
V19Pah5q5orPfsq3UHZWhSaDiuUd7KYq5oL
p1370
aV14hpDFgd7shepaxdEouQCso4btV4ZMw2Ah
p1371
atp1372
a(Vrosenjcb
p1373
(lp1374
V1Es85m7Jrimw2zCs49yRRVfgAeB48mQFxm
p1375
atp1376
a(Vbitcointhrowawayy11
p1377
(lp1378
V3BZH7nnMqtYZjq6QTbikQBo8JrXsMhssy5
p1379
atp1380
a(VRbitco
p1381
(lp1382
V1Fof22qZHhCXqQFP2ETjLDjM35GqxJLSbj
p1383
atp1384
a(Vdivertic2
p1385
(lp1386
V1Dota5xn6h7w6H7GjRMguW4omYvWEdJ7Z5
p1387
atp1388
a(Vmoneystolenbtc
p1389
(lp1390
V1LDaBuUgUgNGDuensc96vXAtvvb8iijhoJ
p1391
aV1LDaBuUgUgNGDuensc96vXAtvvb8iijhoJ
p1392
aV155M7TvBRww6WFdtGQgTYUH8DuLheNafCf
p1393
aV155M7TvBRww6WFdtGQgTYUH8DuLheNafCf
p1394
atp1395
a(VaUniqueUsernamelolol
p1396
(lp1397
V19Cm3ddKvZP11yKVAs59ux5q2xWK4L6mqd
p1398
atp1399
a(VRedditnewbie2017
p1400
(lp1401
V1G87XEswmc7XbVwW4Z6JnLhM3HZVRpBSnP
p1402
atp1403
a(VKinolva
p1404
(lp1405
V1HQ3Go3ggs8pFnXuHVHRytPCq5fGG8Hbhx
p1406
aV1HQ3Go3ggs8pFnXuHVHRytPCq5fGG8Hbhx
p1407
aV18rnfoQgGo1HqvVQaAN4QnxjYE7Sez9eca
p1408
aV18rnfoQgGo1HqvVQaAN4QnxjYE7Sez9eca
p1409
atp1410
a(Vexab
p1411
(lp1412
V185d31BYiTFnywYG9AYNdKKRw6p7rEBRyD
p1413
aV185d31BYiTFnywYG9AYNdKKRw6p7rEBRyD
p1414
atp1415
a(VOto-bahn
p1416
(lp1417
V1GrLCmVQXoyJXaPJQdqssNqwxvha1eUo2E
p1418
atp1419
a(VTheSilentArt
p1420
(lp1421
V1Mc3L9a37sWckhuj5hHGnzca5tyKDNa9bV
p1422
atp1423
a(VTheCasualBob
p1424
(lp1425
V1CjgxoLqgMFJNjv9arxTq6k2movnEvDpJ4
p1426
atp1427
a(Vtheolangsnoer
p1428
(lp1429
V1Btc2UrZTqcbjLrr8trx66K9TozQmKeDGN
p1430
atp1431
a(VRiiume
p1432
(lp1433
V1FeDtFhARLxjKUPPkQqEBL78tisenc9znS
p1434
aV1FeDtFhARLxjKUPPkQqEBL78tisenc9znS
p1435
atp1436
a(Vsmashingdumplings
p1437
(lp1438
V1tktdwdLQEMXpJRxxxxxxSSoi48d4wQA
p1439
atp1440
a(Vbitbro321
p1441
(lp1442
V37p9pUugydmoLpQyFLLqGAgjWmUFERa1Pq
p1443
aV37p9pUugydmoLpQyFLLqGAgjWmUFERa1Pq
p1444
atp1445
a(Vwarrenofauburn
p1446
(lp1447
V3MqZXbGd3PVF5pVhywpSR8MiBadZsCp5a9
p1448
aV1A1zP1eP5QGefi2DMPTfTL5SLmv7DivfNa
p1449
atp1450
a(Vduosearch
p1451
(lp1452
V14aSw8HinPL4fwBTeQKqHXTtKuaQqiGX7S
p1453
aV14aSw8HinPL4fwBTeQKqHXTtKuaQqiGX7S
p1454
atp1455
a(Vbusterroni
p1456
(lp1457
V1A1zP1eP5QGefi2DMPTfTL5SLmv7DivfNa
p1458
aV1A1zP1eP5QGefi2DMPTfTL5SLmv7DivfNa
p1459
atp1460
a(VProfBitcoin
p1461
(lp1462
V1pHanQr5TRuUXajQ87fzHm2u8mMs9L
p1463
atp1464
a(Vslobambusar
p1465
(lp1466
V1PwmvmwyyNHpibn2PTKpZEo6yxZ7L44Hk
p1467
aV1PwmvmwyyNHpibn2PTKpZEo6yxZ7L44Hk
p1468
atp1469
a(Vblueeyedgenie
p1470
(lp1471
V12pg2X5NjvNJREuFm6yPigijnUWVzGwLhQ
p1472
aV12pg2X5NjvNJREuFm6yPigijnUWVzGwLhQ
p1473
atp1474
a(Vchriswaalberg
p1475
(lp1476
V1CETEBHigZg6gCNePgbhQjxvW6C9Kn7n6r
p1477
aV1LpAU2mcW5TdDNnYNvKeGAVhU6S2haVAhR
p1478
atp1479
a(VaUniqueUsernamelolol
p1480
(lp1481
V1BP1dDUrY3SziKWVy5SYTQnkXEFAC9Exvw
p1482
atp1483
a(VAdekolapeters
p1484
(lp1485
V16TupY8sfdf8heuui16eEe2v9qJ2FjJPqZ
p1486
aV19U9f9VRhC4eeaPTGgzmQeT7fHBXgrXKQG
p1487
atp1488
a(VBencwb
p1489
(lp1490
V346Qm93BkbCXyNJPuLng4ULgX8XSdjMhhY
p1491
atp1492
a(VModernLifeDating
p1493
(lp1494
V1PK9FzjcUxCydZFDcFpQyURTLWPHYbA6Bf
p1495
atp1496
a(Vkhon24
p1497
(lp1498
V1CxcWH642SXb658hcvsCmxq5BDm2QHNzEN
p1499
aV1CxcWH642SXb658hcvsCmxq5BDm2QHNzEN
p1500
atp1501
a(Vloserkids
p1502
(lp1503
V1BitcLU5zc39RwUS46bnfTcNcFeACyXjVM
p1504
atp1505
a(VPh03n1xII
p1506
(lp1507
V1d0e4623675d435c83c1e2bd6cb82b1b
p1508
atp1509
a(Vbitcoininoz
p1510
(lp1511
V1J92yXGaEq9qzfJpikdjwDTmB726fcjgT5
p1512
atp1513
a(Vmnsx37
p1514
(lp1515
V3QzYvaRFY6bakFBW4YBRrzmwzTnfZcaA6E
p1516
atp1517
a(Valexcooool
p1518
(lp1519
V1KKRE7oC7BroawnciVGJZPpqNX4VWjKKo1
p1520
atp1521
a(Vbilbo_james
p1522
(lp1523
V1LSqksKgmUh1TDMoAxLAQSNcwnfgkzCRP6
p1524
aV1LSqksKgmUh1TDMoAxLAQSNcwnfgkzCRP6
p1525
atp1526
a(Vbitaps
p1527
(lp1528
V14aT7ELki1pVWtryd5brMGqsFySWgjy8je
p1529
atp1530
a(VWaterboy550
p1531
(lp1532
V1CqmjgYj46vRqBxFvbt5WsqMudRShhGKmD
p1533
aV1NNcPWKhowH7QhKDAjRYrdBFVbAHoDDcCe
p1534
aV1CqmjgYj46vRqBxFvbt5WsqMudRShhGKmD
p1535
aV16D1XkRHunUgSfuPDQZSPG42cAicTbSmzu
p1536
aV1qjThyMzMrpy3m1esvXF32o3MHVixnxnA
p1537
atp1538
a(Vasoltys
p1539
(lp1540
V1CatXmMAiPKC5uk9UsUjQmFQV4wvGwqAmh
p1541
aV159jZgMH8yGvMPoi3Nz82BLrUsyzSXnG9q
p1542
atp1543
a(Vloose5-9BTC
p1544
(lp1545
V1JL8K1Bh1EQpBUk41WBPvdjwn5vbjp55bv
p1546
atp1547
a(Vdrei4u
p1548
(lp1549
V135zDqhbNcmPk3gbyeJmH75yiLdVZechsK
p1550
atp1551
a(Vkinoshitajona
p1552
(lp1553
V1Ek9S3QNnutPV7GhtzR8Lr8yKPhxnUP8iw
p1554
aV36ghjA1KSAB1jDYD2RdiexEcY7r6XjmDQk
p1555
atp1556
a(VJif_Fan
p1557
(lp1558
V3F51C1DLNU5hxhimKVZ7T89omSR9YDoXAn
p1559
atp1560
a(VCosmosKing98
p1561
(lp1562
V18xQ8GZ5HBGwDoDf6UMMHGhZoHvGvvvjfq
p1563
atp1564
a(Vbazzip
p1565
(lp1566
V191mDqLbQEXGHKv1VmnnNQ8aEC3ayAPh9p
p1567
atp1568
a(Vallyougottado
p1569
(lp1570
V19hNEoHRGb2wDpxWGgDEDwaoHdEfKjZwWx
p1571
atp1572
a(Vcryptospout
p1573
(lp1574
V1FE6eeFGgn6sXyK5f3su6fT8csmRtAGir7
p1575
aV1FE6eeFGgn6sXyK5f3su6fT8csmRtAGir7
p1576
atp1577
a(VFlyingBambooFish
p1578
(lp1579
V1GUXZtg8DQmsoZqWK6HhnEPjN2PCgSYr4S
p1580
atp1581
a(VFollow_cLear
p1582
(lp1583
V12h4AQk7P5Xsn9tjZztmh4DKxzoYnsW7Fo
p1584
aV1KJ77BFHf2d9gWKY1wNU7idzDqS1426RS7
p1585
aV19PHneGPAM99zXattgEhESmMyyXXXQLVWc
p1586
atp1587
a(VSYonker
p1588
(lp1589
V18YqRdprBkNLdhdZUAt2agHeEVypvNwWMA
p1590
aV1MntZvt7uhvNwdXDoHjfyY5NEypmdS8qMF
p1591
aV17k1udD7KyouxjCihojV8XkTYzRv9MSpvb
p1592
atp1593
a(VSolmasan
p1594
(lp1595
V1NkDx6zLTDG1sFEoWfaoqMmpHgyW3mkE9
p1596
aV1NkDx6zLTDG1sFEoWfaoqMmpHgyW3mkE9
p1597
atp1598
a(VNatchil
p1599
(lp1600
V12wzewNuJ2ERQrvYkAL7GoBydof9Eh4Usw
p1601
atp1602
a(Vnewhampshire22
p1603
(lp1604
V1CBr5J9vPMVzf5S22vdMUXkcLw8p4w7JgU
p1605
atp1606
a(Vero79
p1607
(lp1608
V1EDNFQ5vJdYhHwuq7u53YcVPJXqM5QbX1i
p1609
atp1610
a(Vqwsazxcde1
p1611
(lp1612
V12C7vYya3LMQZCnGYgSdKLsAJto38hCHhm
p1613
atp1614
a(Vtheochino
p1615
(lp1616
V1EW7ESwvS3yGesSbP8G5ULsHYmy5pykeCG
p1617
atp1618
a(VTrillionSatoshi
p1619
(lp1620
V1FeexV6bAHb8ybZjqQMjJrcCrHGW9sb6uF
p1621
atp1622
a(VSiigari
p1623
(lp1624
V1k1xbLFAjk2A2txgpe8qPRTVYjkTGLsTY
p1625
aV15iF5aQBvZDuy72ufa4JJPK5voAU7J7naj
p1626
atp1627
a(Vjamie1029
p1628
(lp1629
V1Giy3uaBtzyCPeWX9rpPn9NPp8Td1zrwVW
p1630
aV1NjbcM51ma4vLEwnpFtGWcX6gjRZuh1RDn
p1631
atp1632
a(VKmhowe77
p1633
(lp1634
V1KJzp1VQegwAhH8c4mjnEmhnGRbXKY62Hg
p1635
atp1636
a(VTengokuq
p1637
(lp1638
V1FYZ3vEnvUx9UGNg7qpMSvUynFtcKSC6pJ
p1639
aV1FYZ3vEnvUx9UGNg7qpMSvUynFtcKSC6pJ
p1640
atp1641
a(VKmhowe77
p1642
(lp1643
V1KJzp1VQegwAhH8c4mjnEmhnGRbXKY62Hg
p1644
atp1645
a(Vfinessestreet
p1646
(lp1647
V1LHsrowTpobDbKDe1q4s2zep1csy2EBsVj
p1648
atp1649
a(Vwtfbreadwallet
p1650
(lp1651
V1MPK4usft5nxvcFdACLuQKNu2znhVyFBYm
p1652
atp1653
a(Vtimgfx
p1654
(lp1655
V1BotWjHceBKarsjbDyjxA49h4ZSZccjp3V
p1656
atp1657
a(VFlowerBug
p1658
(lp1659
V1Ld65JbZABfozVZ3fGJ2hhA1Tfcz8KUSRH
p1660
atp1661
a(Voshirowanen
p1662
(lp1663
V17aVU9TqDdjWcoYe2dzVnMsBP2NLeibTC2
p1664
aV199VtfUydjE5zYdjEFRf8p48crUDRCJMq9
p1665
aV1LT6zPA8hCVA9PSirjWCNzJUZLRYg1Ljv1
p1666
aV1xpfWwkrfSXd8xqvVYxBDfjoeDtEHMtrw
p1667
aV1Beb9dKjCf3PNJ7HCaMNCr8BaStacDg1Cn
p1668
aV1A2cczWyLwa7tCaSQiLbKFHaCA491ytdA
p1669
aV1qDMyVReyov9yuEXmf1bUyBHphrimYtje
p1670
aV19Bd4s1NVMb612ogciokPi6Jar8MkHWfP2
p1671
aV1AufXQKpec8LG5HyWK2QHa9hFYwsxCRZiw
p1672
aV15heUSNWve1p1RmjeiBwqixi8iK2KzQMBE
p1673
aV1DDudcWjDXyPhbnU9iBirVRGJbVfxG2pfx
p1674
aV1F4gvGCkwMTfFSX6qcX3F7p1u9C39SX8Fu
p1675
atp1676
a(VHealadinn
p1677
(lp1678
V1PweHLxpeQGeVvj912j8cGn1aYgH5joCBE
p1679
atp1680
a(Vmasterzman
p1681
(lp1682
V1HQ5xwx2RPFYQ4GMTanU2bpgVZXumjHLys
p1683
atp1684
a(Vdorschm
p1685
(lp1686
V1H5En81woNBoPJyn7ZK9M7dWw7icQUrw75
p1687
aV1DGpVjTSh2NEPk781Sy6fnxj4noUminZiM
p1688
atp1689
a(Vpaulds_fr
p1690
(lp1691
V1NBHz7YCkehSg8WKyVLzzog99wk9da8mJj
p1692
aV1NBHz7YCkehSg8WKyVLzzog99wk9da8mJj
p1693
atp1694
a(Vkk900
p1695
(lp1696
V14hgrxhMDa8Po98wtR42e6RB8CSp5y5A6w
p1697
aV14hgrxhMDa8Po98wtR42e6RB8CSp5y5A6w
p1698
atp1699
a(Vomnes-moritur
p1700
(lp1701
V14ADSrKRjzwSeDYpuoVy4nFAXt3DcQVpFv
p1702
aV1Em9JLLwNGpet5K6UvkxurxowD5ksqkeU4
p1703
atp1704
a(VTheBigBlabberMouth
p1705
(lp1706
V1EWPbzJk7nKkSVkUJQMz2yGkahovg82VpW
p1707
aV14HgRrtEuWo6TUAJm2bvyjhVpMPntvatZ6
p1708
aV114Cp33K1ay64Vh5C4cGpn3ncac2hKQFgs
p1709
atp1710
a(VLightningHuang
p1711
(lp1712
V14mhzjkJ71oMAMkKu3dy98dnUpkyQBHL1r
p1713
atp1714
a(Vbrocktherock68
p1715
(lp1716
V1H6ZZpRmMnrw8ytepV3BYwMjYYnEkWDqVP
p1717
atp1718
a(VMrB1ond3
p1719
(lp1720
V1ECvVMvG9sigU8abL5MutAiyencSR7kR3p
p1721
atp1722
a(VC3Pdro
p1723
(lp1724
V19MsB1uaykiQSFUsazLDWMGijoASV8GQYc
p1725
atp1726
a(Vbitcoinlady
p1727
(lp1728
V155bPDZxJkbdK6mB1tFAV1km2YPwqt92W
p1729
atp1730
a(VBinaryResult
p1731
(lp1732
V17Q4MX2hmktmpuUKHFuoRmS5MfB5XPbhod
p1733
atp1734
a(VLindasAruba
p1735
(lp1736
V1LvnFoorCQ6TPTKxkT2X112waAeBqfKB6X
p1737
atp1738
a(VTheBigBlabberMouth
p1739
(lp1740
V15yHJnLQaQH7jggJsHYGxdNCNHyHVofCuf
p1741
aV15yHJnLQaQH7jggJsHYGxdNCNHyHVofCuf
p1742
aV15yHJnLQaQH7jggJsHYGxdNCNHyHVofCuf
p1743
atp1744
a(VFagexSupport
p1745
(lp1746
V1LyeqVEyvKd2XRPMrBPWa643DdNM47yr2a
p1747
atp1748
a(Vsonofbelial1983
p1749
(lp1750
V381pXT7jSWis2tnL71Fnh7CTy4dW58deFr
p1751
atp1752
a(VGhyuoid
p1753
(lp1754
V1DdWwRWwhQKgB45cxRN2bXb4j4P32R3gjr
p1755
atp1756
a(Vbtcsa
p1757
(lp1758
V18J1ogW8FFGNuu9gefBVBWUVv78V2p9qD6
p1759
atp1760
a(VAngelnero
p1761
(lp1762
V1NUdzytc8puSCun3kB8wce9nyzdBK5YV8M
p1763
atp1764
a(Vsonofbelial1983
p1765
(lp1766
V3FzJeGQyk25kpwj3pRgYfm9iMZYjRmdrap
p1767
atp1768
a(VeN0Rm
p1769
(lp1770
V14G6BzmNVSm9tWHyB2aebc3WMjVNojrRJf
p1771
aV1MFXYK1XucKFfhPhW9HDHD3vsM9BKey4qm
p1772
aV1MFXYK1XucKFfhPhW9HDHD3vsM9BKey4qm
p1773
atp1774
a(VeN0Rm
p1775
(lp1776
V14G6BzmNVSm9tWHyB2aebc3WMjVNojrRJf
p1777
atp1778
a(VDs720
p1779
(lp1780
V12wPayNTmJ8StkJxHoMrG3eo9PJznHgHJu
p1781
aV155d6B2fXcF9wqpxPqnnBt1zK5Jqc9rBJg
p1782
aV3AtbpAikJ6C11ZCHiYbEKcSjyoVjzfxYwU
p1783
atp1784
a(VCrazyhorse6970
p1785
(lp1786
V19WJGKpwYnW2SYKPLV5psSQjU8bewiEkQL
p1787
aV1LMrshuK8GdJjukVrrbWkT9FUi4aCTvATe
p1788
aV19WJGKpwYnW2SYKPLV5psSQjU8bewiEkQL
p1789
aV155M7TvBRww6WFdtGQgTYUH8DuLheNafCf
p1790
atp1791
a(VTheBigBlabberMouth
p1792
(lp1793
V15yHJnLQaQH7jggJsHYGxdNCNHyHVofCuf
p1794
atp1795
a(Vpravin0911
p1796
(lp1797
V1PqNqXXd9zZ5sjgqsL9mktnqQ5AtmnvPDe
p1798
atp1799
a(VBIFTAWARRIOR
p1800
(lp1801
V1GqrtGQC5H8m7TK2ipJVLQCQRn8v1QrrK2
p1802
atp1803
a(VMentor77
p1804
(lp1805
V39coweGgC8CPZ6hYL1BBEfc1zqbSfHsprW
p1806
aV35emx395afKAKAr72VoePVbu3FJvxLPVny
p1807
aV1Kr6QSydW9bFQG1mXiPNNu6WpJGmUa9i1g
p1808
aV39coweGgC8CPZ6hYL1BBEfc1zqbSfHsprW
p1809
aV35emx395afKAKAr72VoePVbu3FJvxLPVny
p1810
aV1KEpBWJ87TTyRJaSkeNTJVq4zEMAZ7g1hc
p1811
aV1KEpBWJ87TTyRJaSkeNTJVq4zEMAZ7g1hc
p1812
atp1813
a(VFuckswithplatypus
p1814
(lp1815
V1Kr6QSydW9bFQG1mXiPNNu6WpJGmUa9i1g
p1816
aV39coweGgC8CPZ6hYL1BBEfc1zqbSfHsprW
p1817
aV35emx395afKAKAr72VoePVbu3FJvxLPVny
p1818
atp1819
a(Valtovecchia
p1820
(lp1821
V1Dorian4RoXcnBv9hnQ4Y2C1an6NJ4UrjX
p1822
atp1823
a(VTheBigBlabberMouth
p1824
(lp1825
V14rVjr1pP4eoHhuYaf4LWkEB7cCdWWZwZN
p1826
aV138o4nN2yE1Bx9j1qgF9iTYKgW1SC2nTgm
p1827
atp1828
a(VBashCo
p1829
(lp1830
V16LQz2KNUiAZ3rs9LX9oLqLG9udPFaz93k
p1831
aV1NYT1f6Mbty6iZiHPQtM5fDSmSKk6e2HKN
p1832
aV1NYT1f6Mbty6iZiHPQtM5fDSmSKk6e2HKN
p1833
aV1BitcoinEaterAddressDontSendf59kuE
p1834
atp1835
a(Vverstands
p1836
(lp1837
V39coweGgC8CPZ6hYL1BBEfc1zqbSfHsprW
p1838
aV35emx395afKAKAr72VoePVbu3FJvxLPVny
p1839
aV1Kr6QSydW9bFQG1mXiPNNu6WpJGmUa9i1g
p1840
atp1841
a(Vdublinjammers
p1842
(lp1843
V1Eihn5TNN7k82ry4yxC4VQoDxKwAJjEevr
p1844
atp1845
a(Vrekcahxfb
p1846
(lp1847
V1NYT1f6Mbty6iZiHPQtM5fDSmSKk6e2HKN
p1848
atp1849
a(Vrechemco_official
p1850
(lp1851
V1tempAitLUWwgNGhiJjAxXegv61tXd6x2
p1852
atp1853
a(Vcpt_ballsack
p1854
(lp1855
V18YhAcNcTYuy2ZWageKrqmibfdSKjPpayk
p1856
atp1857
a(Vbtcdrak
p1858
(lp1859
V39coweGgC8CPZ6hYL1BBEfc1zqbSfHsprW
p1860
aV39coweGgC8CPZ6hYL1BBEfc1zqbSfHsprW
p1861
aV35emx395afKAKAr72VoePVbu3FJvxLPVny
p1862
aV35emx395afKAKAr72VoePVbu3FJvxLPVny
p1863
atp1864
a(VBobanaut
p1865
(lp1866
V1EnDZkT8Thep9sfbAy5gwg23EHhZw7tYwg
p1867
aV1L3Zqv68zsXxNs53r25dKcUgjDe1119Rhj
p1868
atp1869
a(VAdaptivedev
p1870
(lp1871
V1eb6ace2c79bade5dc1c554e91488617
p1872
atp1873
a(VQewbicle
p1874
(lp1875
V35emx395afKAKAr72VoePVbu3FJvxLPVny
p1876
atp1877
a(VJoloffe
p1878
(lp1879
V35emx395afKAKAr72VoePVbu3FJvxLPVny
p1880
aV39coweGgC8CPZ6hYL1BBEfc1zqbSfHsprW
p1881
aV35emx395afKAKAr72VoePVbu3FJvxLPVny
p1882
atp1883
a(Vshadowboyah
p1884
(lp1885
V35emx395afKAKAr72VoePVbu3FJvxLPVny
p1886
atp1887
a(Vwhatisgoingonhereoy
p1888
(lp1889
V1Pm9qMnyfxMVNHdEBJwkGaN7LKPLpBz281
p1890
atp1891
a(VAtlas_84
p1892
(lp1893
V15NwDPVgNhkyQ9q1Y1UggbBq8nv3YKBcwb
p1894
aV15NwDPVgNhkyQ9w1Y1UggbBq8nv3YKBcwb
p1895
atp1896
a(Vtrixong
p1897
(lp1898
V38ui82PvKouMGFZeCYmFybdewMLYZ6xoqt
p1899
aV3HNSiAq7wFDaPsYDcUxNSRMD78qVcYKicw
p1900
atp1901
a(Vrekcahxfb
p1902
(lp1903
V1NYT1f6Mbty6iZiHPQtM5fDSmSKk6e2HKN
p1904
aV1BfxSuxJqXuizBbTcP238JZY9DT4eqvzJG
p1905
aV1BfxSuxJqXuizBbTcP238JZY9DT4eqvzJG
p1906
aV1BitcoinEaterAddressDontSendf59kuE
p1907
atp1908
a(Vno_btc_for_me
p1909
(lp1910
V3HNSiAq7wFDaPsYDcUxNSRMD78qVcYKicw
p1911
atp1912
a(Vgowithbtc
p1913
(lp1914
V3Kf31ywzMjF6W48NM1WByRgescEJaGDAAV
p1915
aV3NMkeWidzL7MQbrdMR9m7guANcNJofxyJD
p1916
aV32JUrk6gPDj2sJ4FM8HhHSC8g957cRDS2e
p1917
aV33qM1scZDyxS6DkUXNUmMwFs3QG1Qbu9JF
p1918
aV3BxsErcrcDaQR8US4NgpzR444shG41ncZq
p1919
aV39S5vfCQn83iLYaNX2zbBxe28V3pZzgqRg
p1920
aV3PwkxeykAgVUc1VRhawr6aSEWobsS7GfHn
p1921
aV3ACXE9RVVW8R8wrvrwqqnFaviudFPzSH1c
p1922
atp1923
a(Vr1ddl3m37h15
p1924
(lp1925
V17ac4moXPanV5QzuXRCiBs8uzRSjeSos3h
p1926
atp1927
a(Vnortamod
p1928
(lp1929
V13DiaGYfmytzvGwssts9gK4DKYDH9Ra4yN
p1930
atp1931
a(Vnbctoday101
p1932
(lp1933
V1CSzFDPGF4JK7jEhmRxN43L3NpSkz8JEpe
p1934
atp1935
a(Vcryptomonk_
p1936
(lp1937
V1PbgVwhqQ9exuwyAC6RB9j3K8TU58QZebi
p1938
aV14PKB3sH23Gs9EShyfyYxgCKjKf4s1A6Lk
p1939
atp1940
a(VLenlo123
p1941
(lp1942
V1PK3G8kHWAM6SxkTnj6MvRicwZUDS7P5u7
p1943
atp1944
a(Vgapil301
p1945
(lp1946
V3GmWMRX4BfVbU9cykDYPhtwQ6ovr9q3XPH
p1947
atp1948
a(Vs--sfs
p1949
(lp1950
V1LjBQSHrtY5pXaNp4WWJ2MSZHZduc2yF9z
p1951
atp1952
a(VLightningHuang
p1953
(lp1954
V14mhzjkJ71oMAMkKu3dy98dnUpkyQBHL1r
p1955
atp1956
a(Vjratcliff63367
p1957
(lp1958
V1DVpJ2Nu1wgtGjtyLPSr578hx1NUouTNVX
p1959
aV1CagEhhb1TyLZmqzgBG64fmUKBX5YFfvqP
p1960
atp1961
a(VMIkeHBrown
p1962
(lp1963
V16m8BHbWVDgRSGRU3WVtqsay3JaEved12w
p1964
atp1965
a(VLightningHuang
p1966
(lp1967
V14mhzjkJ71oMAMkKu3dy98dnUpkyQBHL1r
p1968
atp1969
a(VThrowAwayDDDhial5
p1970
(lp1971
V35599E3B7GyMTFmxcNiVeDBdEpyvoYfZPA
p1972
atp1973
a(VImperatorny
p1974
(lp1975
V3KzEvyrSK1o3qekqTGWipo4sAomDu28G4T
p1976
atp1977
a(Vblime-sub-ab
p1978
(lp1979
V1A3arpN554knihfPDwJrBKPB3SUJKbeAh2
p1980
atp1981
a(Vjmypetersen
p1982
(lp1983
V17kVyWrB7Z3j12eAFaVQJYv3Kq9ZpLzRGr
p1984
aV1AGaCRnVijJeNDDF14qzZ2UvLuosLuKwuP
p1985
aV1CzUkmNrP694M1y8bkNatrV4iPEFkhkn6U
p1986
aV17YYeNevLyg1yyt35rSQmExxHDEKUbxTVk
p1987
aV1PtmcbPtsq4e2iy3ykto8LwT6s4DhfUvFe
p1988
atp1989
a(Vwintercooled
p1990
(lp1991
V1GdK9UzpHBzqzX2A9JFP3Di4weBwqgmoQA
p1992
atp1993
a(Vdublinjammers
p1994
(lp1995
V1HawR5egZsnYwfKUrJgHH2WqBrgsssmsww
p1996
aV1HawR5egZsnYwfKUrJgHH2WqBrgsssmsww
p1997
atp1998
a(Voshirowanen
p1999
(lp2000
V185aJoLovQjdRyRvP8YFwcdAEkw98GGiZs
p2001
atp2002
a(Vdublinjammers
p2003
(lp2004
V1HawR5egZsnYwfKUrJgHH2WqBrgsssmsww
p2005
atp2006
a(Vetucexe
p2007
(lp2008
V1JohnxNT6jRzhu3H1wgVFbSGKmHP4EUjUV
p2009
atp2010
a(Vdublinjammers
p2011
(lp2012
V1HawR5egZsnYwfKUrJgHH2WqBrgsssmsww
p2013
atp2014
a(Vqlassar
p2015
(lp2016
V3MpHZFXuWW3zXL8AYKcfNHLW7ZCRBayy3W
p2017
aV33HgGvHTxcoQNpVKAiyzi6JtJVDRnbn1Ao
p2018
aV3Pnnt5bbvjAnTaoh3hJExcQHMNrcDRhBK9
p2019
aV1L3h2xbDRmJDZooz9DFM4k43iVfvhJ1kog
p2020
aV12aDD1xX9oP5V9PkEQm9G2H9vjrwW91u8i
p2021
aV3ESXW2wxi7yK3DG2ws5MmHdo4eybWx8PpN
p2022
aV3Dk9devHkcWsKaEytH9d5cqe5btqHZrZvt
p2023
atp2024
a(VDisruptMeister
p2025
(lp2026
V3MpHZFXuWW3zXL8AYKcfNHLW7ZCRBayy3W
p2027
atp2028
a(Vevandam
p2029
(lp2030
V1x5sem5nW6Gn18683ktrNkaFMMHvF7ggf
p2031
atp2032
a(VddIbb
p2033
(lp2034
V1HswqbS6swTMarPh6QwQme9QmBA12cwoMp
p2035
atp2036
a(VddIbb
p2037
(lp2038
V1HswqbS6swTMarPh6QwQme9QmBA12cwoMp
p2039
atp2040
a(Vmempooler
p2041
(lp2042
V1H3bmag7LrBZfc33t8VaZ3EUjnuaMU47qr
p2043
atp2044
a(Vdublinjammers
p2045
(lp2046
V1HawR5egZsnYwfKUrJgHH2WqBrgsssmsww
p2047
aV1HawR5egZsnYwfKUrJgHH2WqBrgsssmsww
p2048
atp2049
a(VbeelHQ
p2050
(lp2051
V1HkJKLwAiDDBAZFWoftaZoJXQMryHewUUe
p2052
atp2053
a(Vsnowcap420
p2054
(lp2055
V301ee7fab74ca8e7df017fb3a316cb20
p2056
atp2057
a(Vdobroezlo
p2058
(lp2059
V1L47Mtb2Hdi16sunaiaqAaUEqUmXZatM5W
p2060
atp2061
a(Vnacodasiel
p2062
(lp2063
V1C8m8B414eQAWmE8cB1ycQ8eJDBon85zCV
p2064
atp2065
a(VMalakute
p2066
(lp2067
V3Dcd584dde8f004a9880bd2d97cd3ad495
p2068
atp2069
a(Vangreeee
p2070
(lp2071
V1C3bL8n7XPtfWh5o3pBcWkxmozDQnbub6N
p2072
aV1GPdpFFfRfezByk4Auk8vGftQpQ8yRcxAx
p2073
atp2074
a(Vlooselikejuice
p2075
(lp2076
V16YEVBDMESoGPNe2c51zX13JP1DBVtSKh2
p2077
atp2078
a(Vlooselikejuice
p2079
(lp2080
V16YEVBDMESoGPNe2c51zX13JP1DBVtSKh2
p2081
atp2082
a(Vlooselikejuice
p2083
(lp2084
V16YEVBDMESoGPNe2c51zX13JP1DBVtSKh2
p2085
atp2086
a(Vtbw875
p2087
(lp2088
V1CB8rS6Rj6FgrWCwxqW5HE8YPtSiwQ2v99
p2089
atp2090
a(Vchrismarquardt
p2091
(lp2092
V34EF06A8C6C2B44819B20AB28991CB3B
p2093
atp2094
a(Vbelkapay
p2095
(lp2096
V1FraQHqXKVzTmkqsCZnMx9UE17CFihmQ4V
p2097
aV185vTzRUxiLYayT5bnaf3C68XGEbydMgkt
p2098
atp2099
a(VApplewoood
p2100
(lp2101
V1FBsQeFG2GKKWNyqLDYNZ9ioBdhKZFVTDK
p2102
atp2103
a(Vderrend
p2104
(lp2105
V1EzwoHtiXB4iFwedPr49iywjZn2nnekhoj
p2106
aV1EzwoHtiXB4iFwedPr49iywjZn2nnekhoj
p2107
atp2108
a(Vlooselikejuice
p2109
(lp2110
V16YEVBDMESoGPNe2c51zX13JP1DBVtSKh2
p2111
atp2112
a(VCalm_down_stupid
p2113
(lp2114
V1HpdS2biJ1DrhnzHUzeXnS7AFTExMTawB9
p2115
atp2116
a(Vdarkfur93
p2117
(lp2118
V1Kp2G1W1RPVXHBAoiW8rTFsDvWEg1mJuLc
p2119
atp2120
a(Vjinwoonlee
p2121
(lp2122
V1DsLeXhUDzUVESg7aa55nBb4WU9uWCWVP4
p2123
atp2124
a(Vnevabank
p2125
(lp2126
V13393oQXKRfAxcoxDeLUXJ9nFdhCqEuSa9
p2127
atp2128
a(Vslim375
p2129
(lp2130
V1AdvBFjyP3uNEPjmmT4Bu7dKykiagPLPN8
p2131
atp2132
a(Vvisualmagic
p2133
(lp2134
V19SJKttrfqveiN6azfH1gBE8317G57tumF
p2135
atp2136
a(VUnemployed-Economist
p2137
(lp2138
V18UoBuLZWgzztt4yftrg8j35p5gPPUPfx7
p2139
atp2140
a(VUnemployed-Economist
p2141
(lp2142
V18UoBuLZWgzztt4yftrg8j35p5gPPUPfx7
p2143
atp2144
a(Vhotwiredtn
p2145
(lp2146
V1BF3uYBDjpPAjpoRSMuFMeXtGG8gPq4H9k
p2147
atp2148
a(Vmurf43143
p2149
(lp2150
V1G4Qxywam7V7PeG7LRpC8qT8zWHnUJBA9d
p2151
aV1FG3CjVzc2to8hZYJYDnVdUQaRafp1T7jg
p2152
atp2153
a(VLord_Bernn
p2154
(lp2155
V133Erpa4YHDrxuFty3kNotBiRibEk1EdfK
p2156
aV1EfdGV6XWjS3wDPRgv458A78cE5VE5m91m
p2157
atp2158
a(Vkillerstorm
p2159
(lp2160
V1b2a0e52344420fb917aa1feae6b8ccc
p2161
atp2162
a(Vstealth2017
p2163
(lp2164
V1Cgf9UHUxfWnnddAT3gf9PEJeGxUSkBVZc
p2165
aV1Eir4W3AAZvxJWXDv2VRcMForRtxQ2K5tz
p2166
aV13qVffguWJzgho4aZNid9Ngqvgs18TGiEX
p2167
aV1Eir4W3AAZvxJWXDv2VRcMForRtxQ2K5tz
p2168
aV1Eir4W3AAZvxJWXDv2VRcMForRtxQ2K5tz
p2169
aV1ATMS9BQrV4zb6X8AJMy2ngSUuPrR3i7s4
p2170
atp2171
a(Vgatherc
p2172
(lp2173
V1VanteMe21JmABACJbp3pTSd89Ej9xmhUH
p2174
atp2175
a(Vcatch_the_wasp
p2176
(lp2177
V1AgzMVyW669aFc5HyNG3e6TrtnPDZWXGYH
p2178
atp2179
a(Vseweso
p2180
(lp2181
V1aYfkjiN534p4zyE5WJNm7rddr84KS
p2182
atp2183
a(Vblockonomics_co
p2184
(lp2185
V12c6DSiU4Rq3P4ZxziKxzrL5LmMBrzjrJX
p2186
atp2187
a(Vbusterroni
p2188
(lp2189
V1A1zP1eP5QGefi2DMPTfTL5SLmv7DivfNa
p2190
aV1A1zP1eP5QGefi2DMPTfTL5SLmv7DivfNa
p2191
atp2192
a(VLezek123
p2193
(lp2194
V12cbQLTFMXRnSzktFkuoG3eHoMeFtpTu3S
p2195
atp2196
a(Vvdramaliev
p2197
(lp2198
V1BvgCSuSdvNFXuDfhux5AULc7FrKV8VZRG
p2199
aV1BvgCSuSdvNFXuDfhux5AULc7FrKV8VZRG
p2200
atp2201
a(VSatoshiGoesBerlin
p2202
(lp2203
V1A1zP1eP5QGefi2DMPTfTL5SLmv7DivfNa
p2204
aV1A1zP1eP5QGefi2DMPTfTL5SLmv7DivfNa
p2205
atp2206
a(V45sbvad
p2207
(lp2208
V1A1zP1eP5QGefi2DMPTfTL5SLmv7DivfNa
p2209
atp2210
a(VSherlockcoin
p2211
(lp2212
V12cbQLTFMXRnSzktFkuoG3eHoMeFtpTu3S
p2213
atp2214
a(Vlinusdunkers
p2215
(lp2216
V1FXqE2ixnnSB1kvwbMtWma5xQ2bVbkSq3f
p2217
aV1FXqE2ixnnSB1kvwbMtWma5xQ2bVbkSq3f
p2218
atp2219
a(Vtheochino
p2220
(lp2221
V12CffXXyGpBjUdLKENe1Q3BDcDtyixZpKH
p2222
atp2223
a(Vtrousercough
p2224
(lp2225
V1BitmixerEiyyp3eTLaCpgBbhYERs48qza
p2226
atp2227
a(Vblksz
p2228
(lp2229
V1DnhafJfkNUrFGDtuBMCejjXQxh7SFTnrS
p2230
atp2231
a(Vkukien0707
p2232
(lp2233
V16rXrudNjStwyEqBQeJA2nJ3h17WhqY8rp
p2234
atp2235
a(VJachoshi
p2236
(lp2237
V18sm3x99ZtK9DQ2wWsrmQMnYAuQbvGxZZM
p2238
aV18sm3x99ZtK9DQ2wWsrmQMnYAuQbvGxZZM
p2239
aV18sm3x99ZtK9DQ2wWsrmQMnYAuQbvGxZZM
p2240
atp2241
a(VAdamCox9
p2242
(lp2243
V12eyYePCCU4qG8wKf7zjezkYGT9yLSeoSh
p2244
atp2245
a(VHelp_bitcoin
p2246
(lp2247
V1DnJ6sEeN6jS1CZah1hhe8vos6cDbyvSTV
p2248
atp2249
a(Va44tech
p2250
(lp2251
V3BpLKgjkH61fzSaCDCSKMmfCwq4NemYf7E
p2252
atp2253
a(Vimaginative_investor
p2254
(lp2255
V1N5nkMSWf1vTkbekst4PvsGq3Q5eK38ga5
p2256
atp2257
a(Vbitcreation
p2258
(lp2259
V3LcvRcUc5G4aV1R9knanDsKFxAfyKZaoa1
p2260
atp2261
a(Vthrowaway45852125420
p2262
(lp2263
V14ZiRUCwzNfqmvgozQJCsSXHmPtHnABuX4
p2264
aV14ZiRUCwzNfqmvgozQJCsSXHmPtHnABuX4
p2265
atp2266
a(Vhualon
p2267
(lp2268
V17Zr5SNM8zzWTmqe8F9NtNTeFrkXeRXknY
p2269
aV1Q2rYBFmpA3LniPvQuumisegQGEBdhxYiZ
p2270
aV1aa5cmqmvQq8YQTEqcTmW7dfBNuFwgdCD
p2271
aV1aa5cmqmvQq8YQTEqcTmW7dfBNuFwgdCD
p2272
atp2273
a(VBinaryResult
p2274
(lp2275
V17Q4MX2hmktmpuUKHFuoRmS5MfB5XPbhod
p2276
atp2277
a(Vthechitowncubs
p2278
(lp2279
V1MSS9zVjYcBUAp54Uxhf8EUBbMfDfytbEm
p2280
atp2281
a(VDanielCraigIsNot007
p2282
(lp2283
V1Cpf9zb5Rm5Z5qmmGezn6ERxFWvwuZ6UCx
p2284
atp2285
a(Vpatfriedrice
p2286
(lp2287
V13S56WUXFTsPrE55j4Qdye1SPnqnVSuSea
p2288
aV13S56WUXFTsPrE55j4Qdye1SPnqnVSuSea
p2289
atp2290
a(Vt9b
p2291
(lp2292
V19hnGsgoaAzopLAA5is4BKko3xQWEX8Ls1
p2293
atp2294
a(VMaxKK
p2295
(lp2296
V1MdBzZ4Qt6rkg6daokDFijLWr4C4zZjeYJ
p2297
aV1MdBzZ4Qt6rkg6daokDFijLWr4C4zZjeYJ
p2298
aV1MdBzZ4Qt6rkg6daokDFijLWr4C4zZjeYJ
p2299
atp2300
a(V247CryptoNews
p2301
(lp2302
V1SpiryFrtwcGJr3gTd7UL5wuDvAu3TEYf
p2303
atp2304
a(Vseremnax
p2305
(lp2306
V1bHLha1dbjzrkRiMAY8hc36xWkw6ufvLG
p2307
atp2308
a(Vsgtmoth
p2309
(lp2310
V1cgLtpyNedwHjNdeu6iJ54pKpsCq8E1bW
p2311
aV1Gx3hcNQyFPTgwhPRzvmx2SM5SEFtrEHtn
p2312
atp2313
a(Vhomopit
p2314
(lp2315
V1aYfkjiN534p4zyE5WJNm7rddr84KS
p2316
atp2317
a(VBTCBbrah
p2318
(lp2319
V1FAQkRnF6uU5W5ecy2qGiCkfs6iR7Qb5Tb
p2320
atp2321
a(Vshred1
p2322
(lp2323
V1LMyPbLTx3ALyKkKtbvpVwT3qYkFTAAfZc
p2324
atp2325
a(Vbrokeartist94pp
p2326
(lp2327
V15JLK8dDwD3QsauPJu9GoY89YjXdSvjBtJ
p2328
atp2329
a(Vniatg
p2330
(lp2331
V1Hkp6W9M3UJyYdMkPjkHhtgZJkLdmCQ4Et
p2332
atp2333
a(Vadiiorio
p2334
(lp2335
V109ebdb2b7d94f86a18b067c77b25057
p2336
atp2337
a(Vusergood
p2338
(lp2339
V1J7VXXp78o1zuSoxZYr5e9zvdSe9ybspEX
p2340
atp2341
a(Vhelpmewithbitcoin
p2342
(lp2343
V3CXUysUs91SvkfmCBuhyW96Mr1HV4iDitZ
p2344
atp2345
a(VCptQo
p2346
(lp2347
V1K4t2vSBSS2xFjZ6PofYnbgZewjeqbG1TM
p2348
atp2349
a(Vnumun_
p2350
(lp2351
V1KxmSmcMTmPvU1qSLYpJLrqnSzBoQ53NXN
p2352
atp2353
a(Vblockchin
p2354
(lp2355
V186LhduoryAtEekpsmSkxVyR1feDGeBhoS
p2356
aV19Rd2Z4ckdPEs34KEmKpbddpK7ngp1sR6g
p2357
atp2358
a(VDiegoTomaselli
p2359
(lp2360
V1Cv6x1xtSfm8UzdNcb2V1QvigC4UQi3rES
p2361
atp2362
a(VDemonJesterBot
p2363
(lp2364
V13xNnLFMptcP3WsYv9PzLmtnnN7f6dWHjc
p2365
atp2366
a(VMandelDuck
p2367
(lp2368
V16GfDQ9aXZAc65XmNMuTQu9qZrjH7MhxeT
p2369
atp2370
a(Vshipod
p2371
(lp2372
V12H7aNodzGFZqgsX6L6pTab9EJDuSmDeKg
p2373
atp2374
a(VRupert-H
p2375
(lp2376
V3AgxodEvv9FZtm6LMgPxCSmBwhNSBdFsSk
p2377
aV3AgxodEvv9FZtm6LMgPxCSmBwhNSBdFsSk
p2378
atp2379
a(Vshipod
p2380
(lp2381
V12H7aNodzGFZqgsX6L6pTab9EJDuSmDeKg
p2382
atp2383
a(Vshipod
p2384
(lp2385
V12H7aNodzGFZqgsX6L6pTab9EJDuSmDeKg
p2386
atp2387
a(Vseasideian
p2388
(lp2389
V1QF6j8kT3h7DrW2jG88hcnohqjCxNQT8kR
p2390
atp2391
a(VIhazAlotOFquestions
p2392
(lp2393
V1LapJbbEgTNQmDJxt88p6x6gYBb5fxWpvF
p2394
atp2395
a(Vnot_a_tumour
p2396
(lp2397
V1KiYvHP3i3FcnEakm5yhKConpM44D8enLi
p2398
atp2399
a(Vszboy
p2400
(lp2401
V18XUFD8v53CdYRpoiaFvi4r1e2nMskPsY1
p2402
atp2403
a(Voxt_btc
p2404
(lp2405
V13Pcmh4dKJE8Aqrhq4ZZwmM1sbKFcMQEEV
p2406
aV13Pcmh4dKJE8Aqrhq4ZZwmM1sbKFcMQEEV
p2407
atp2408
a(Vhashtheplanet
p2409
(lp2410
V18Lhbarxs89ugKUijW3pdoKgkpapu8MwV4
p2411
atp2412
a(VSynkkis
p2413
(lp2414
V1A1TYS87g868oZnDJdmMSp2oS1MNhsJCHf
p2415
atp2416
a(VNazPirator
p2417
(lp2418
V18LntbXTjjGhUvyNVAakhs1UfTQRB8WgnV
p2419
atp2420
a(Vquahogz
p2421
(lp2422
V3e0dd2af33740e0ecca47443b6b1758f
p2423
atp2424
a(VKayaman85
p2425
(lp2426
V1JFoJoXau65V7Fvy7cpv6DR9pGmWWc7jrJ
p2427
atp2428
a(Vxxqxxx
p2429
(lp2430
V13Cz7J4cL8XBd2nf695yNUtLMh4Q6nYaUL
p2431
atp2432
a(Vbtclsot
p2433
(lp2434
V18etUczHguwP2vzjCLNVTFnyhySvHrVoNp
p2435
atp2436
a(Vdamianoloan
p2437
(lp2438
V3QLvZUHuWDpq84tXaij2FAcgsm3ZjSccYk
p2439
atp2440
a(Vcryptobaseline
p2441
(lp2442
V1BH4ubA66XeQfaRSD2YDD4ExzuacgPV7YL
p2443
aV1JtxLtU4suqaGtcp9F8QsdY3Y8zw99ivfG
p2444
atp2445
a(Vcolinrhyshill
p2446
(lp2447
V1nVEtg9DZZhQtMwNvmA7AW2zKUjDFs58D
p2448
atp2449
a(Vfrancis_pov
p2450
(lp2451
V3KBUuGko4H5ke7EVsq9B7PLK1c5Askdd7y
p2452
aV3KBUuGko4H5ke7EVsq9B7PLK1c5Askdd7y
p2453
aV3KBUuGko4H5ke7EVsq9B7PLK1c5Askdd7y
p2454
aV3KBUuGko4H5ke7EVsq9B7PLK1c5Askdd7y
p2455
aV3KBUuGko4H5ke7EVsq9B7PLK1c5Askdd7y
p2456
atp2457
a(Vhodlmehplox
p2458
(lp2459
V1Hw8fuunnZ6HsWS1VVxLmoVfRoX6tr1uFA
p2460
atp2461
a(Vcytechnos
p2462
(lp2463
V14pUXeKoVW8MmdfQyphYs3XjBjepHajwVe
p2464
aV14pUXeKoVW8MmdfQyphYs3XjBjepHajwVe
p2465
atp2466
a(Vadamabyss
p2467
(lp2468
V1Dorian4RoXcnBv9hnQ4Y2C1an6NJ4UrjX
p2469
atp2470
a(Vtrevelyan22
p2471
(lp2472
V1rgMPYh7tHkmArdb1VeQCqvsLEFP7e7Xj
p2473
atp2474
a(Vedwinrosero
p2475
(lp2476
V1NGQFf36YgqWr8bUKvQai1EEGniUcaWCsH
p2477
atp2478
a(Vxentagz
p2479
(lp2480
V35DC1EhJHH1Jz8tRhGdpVVCR7EzFsWFFzR
p2481
atp2482
a(Vjungleorfeeed
p2483
(lp2484
V1GAwfGV5JsdzHtWCCNPaC5mZWR36xwYn8Q
p2485
atp2486
a(VKEFumpl
p2487
(lp2488
V1a6f1c87c81d1a4e7ea40a9d261bd22e
p2489
atp2490
a(Vjunseth
p2491
(lp2492
V17Q4MX2hmktmpuUKHFuoRmS5MfB5XPbhod
p2493
atp2494
a(Vblockedcoin
p2495
(lp2496
V1G6Gs2UTPBaYnxjazTB84xUnQZ4Ke6dfoA
p2497
aV13KfuZ9nfym37U2rtMSzLV9pEwwUNRqHQT
p2498
aV1DFvyAbadmLmuDrFUVWZKxo71SKf9gbueo
p2499
atp2500
a(VDevvinitive
p2501
(lp2502
V1CrsvBK4FBVsPXYUHqCwmuqrCaQw2Yh4Sf
p2503
atp2504
a(Vvdramaliev
p2505
(lp2506
V16w6cmLrCSDgpT7pyF2QcU3bBx7mnFCM8d
p2507
aV1BmVpg9MiCpiFNsJEzQQzayahiDHU25jC
p2508
aV1BmVpg9MiCpiFNsJEzQQzayahiDHU25jC
p2509
atp2510
a(Vwhoownthis
p2511
(lp2512
V1EmASbQQuCq1XPCjDG5Zbw9pA9b87V4rd1
p2513
atp2514
a(VUntrustingFool
p2515
(lp2516
V1BitcoinEaterAddressDontSendf59kuE
p2517
atp2518
a(VAstarJoe
p2519
(lp2520
V1FactomGnNFTsTVx8jiGjcLKDpyL65GDsH
p2521
atp2522
a(Vauyer
p2523
(lp2524
V12SSWU1e3K2mavsvSXpPTBWkNfCPQtPm6x
p2525
atp2526
a(Vitbeetsme
p2527
(lp2528
V1NLkXRHSFhFs6nkLLnQe2zxLE6JFKCcg2D
p2529
atp2530
a(Vandresj551
p2531
(lp2532
V3EwMeWSyC5ffEsxhsiDE7cybQ28KnaeTCH
p2533
atp2534
a(Vpythondz
p2535
(lp2536
V12c6DSiU4Rq3P4ZxziKxzrL5LmMBrzjrJX
p2537
atp2538
a(Vjacksontoledo
p2539
(lp2540
V1J33eMcPdBh2TYC6jXx9ZL3xg8b1WiiXPa
p2541
atp2542
a(VzAdversary
p2543
(lp2544
V1Pgujz9udWQXxtQi2X3P4wMFa1PuyabRch
p2545
atp2546
a(VLightsword
p2547
(lp2548
V19f8Pk3m1GySyowWb8qLy93R5ngAUoVoUE
p2549
atp2550
a(V956Vette
p2551
(lp2552
V1N8FbnAWjegbUPzFJhnYQx7ECN5V3ec12m
p2553
aV1N8FbnAWjegbUPzFJhnYQx7ECN5V3ec12m
p2554
atp2555
a(Vbitkarma
p2556
(lp2557
V1PEoUKNxTZsc5rFSQvQjeTVwDE9vEDCRWm
p2558
atp2559
a(Vthrowaway13223032213
p2560
(lp2561
V1Mupn34gM1DqejsZ2hrS6kNxjH97USTZBc
p2562
aV3NufSooeeA2b1CFxEmW93X9Y4zTbN7YC5K
p2563
atp2564
a(VHomePage15
p2565
(lp2566
V15phMPsZ6chtACXdyDxZPpRv3RHQ6y6dVR
p2567
atp2568
a(VRHavar
p2569
(lp2570
V1EA1WP8pcZY4XVLzXEB7CdQKQtysYdV2N2
p2571
aV1LuckyB5VGzdZLZSBZvw8DR17iiFCpST7L
p2572
aV1EA1WP8pcZY4XVLzXEB7CdQKQtysYdV2N2
p2573
atp2574
a(VLithorz
p2575
(lp2576
V14g65PVHkDYDMFaQk2ctPrKBDUqP1tzgqR
p2577
atp2578
a(VAdammoon
p2579
(lp2580
V1AMvSzrWHr7skoQ8VqZmLM7LtrQLvKHtBm
p2581
atp2582
a(VFMTY
p2583
(lp2584
V1Fd8RuZqJNG4v56rPD1v6rgYptwnHeJRWs
p2585
atp2586
a(Valex4-0
p2587
(lp2588
V1DKZ8x47D8uNSUd5ephwwUWSYWLaNoKWcb
p2589
atp2590
a(VCODERsp
p2591
(lp2592
V1CdzzqmF2YkRWCZhirUAvBmgsjhT5PeC4X
p2593
atp2594
a(Vblockonomics_co
p2595
(lp2596
V1BLCopduWorRYtndztDTzX8MeS9NhKKX74
p2597
atp2598
a(Vjimmyrustles1917
p2599
(lp2600
V374GeNbpiAfWoC2vhwNi9aU5PdCnyER2Gf
p2601
aV374GeNbpiAfWoC2vhwNi9aU5PdCnyER2Gf
p2602
atp2603
a(Vboestin
p2604
(lp2605
V18m6XDfimYCiytz8WKG6sqszFavrM7mMqh
p2606
atp2607
a(Vj0hn1337
p2608
(lp2609
V1N12UzyauEeF3L6KBGYcoFmSLECa4PWWrK
p2610
atp2611
a(Vumbrel
p2612
(lp2613
V1GGGMzZuv5yHbiS7AsUv6X5jGLUu4eC5qD
p2614
atp2615
a(Vbitcoinalien
p2616
(lp2617
V1DufYoj8WCt3vrEmHqddWemsKJsaq2C4MX
p2618
aV1DufYoj8WCt3vrEmHqddWemsKJsaq2C4MX
p2619
aV1EE5XHJU4JEA7N2fLbGgexB7z2cHJ6sNFY
p2620
atp2621
a(Vbobthesponge1
p2622
(lp2623
V154EDBo9LrCsfoSi2vg73g5Jg2sM9QJdzu
p2624
aV1EofW2WyhjerUTQvWwgex4jFfzHq23B9hH
p2625
atp2626
a(VFergulati
p2627
(lp2628
V1MDCjET87EnLbEYrUtEeC552CwP72jK5wf
p2629
atp2630
a(Vbitcoinaverage
p2631
(lp2632
V1DjbMDAsHfmwbwYA9xqhEF1gkKWQY7rR5a
p2633
aV3MTFNQLQ6X7yjMHkbWLnHhgcUw9HJdEjUR
p2634
aV18BmC9k36GBTfu1LT9N9snZJnp89YoLhng
p2635
atp2636
a(Vgsonghashrate
p2637
(lp2638
V1HDmTVYGdpZhsZgZ2aDjKUWvMb1WTRucb6
p2639
aV1HDmTVYGdpZhsZgZ2aDjKUWvMb1WTRucb6
p2640
atp2641
a(Vblechman
p2642
(lp2643
V1snowqQP5VmZgU47i5AWwz9fsgHQg94Fa
p2644
atp2645
a(Vutopiawesome
p2646
(lp2647
V1ECQ1Y6iBcZYMRMnb7eK8Pg6waruHfkZ3u
p2648
aV1ECQ1Y6iBcZYMRMnb7eK8Pg6waruHfkZ3u
p2649
aV1ECQ1Y6iBczYMRMn67eK8Pg6waruHfkZ3U
p2650
atp2651
a(Vcalvincoin
p2652
(lp2653
V12CuSthsd29gqAfrfxbzW1KGNLXW91e1Md
p2654
atp2655
a(Vtheswapman
p2656
(lp2657
V3JESQuguHF983aLRRLzFtfNPPn3ZK4fMBd
p2658
atp2659
a(Vshayanbahal
p2660
(lp2661
V1FEELodoAt6YvGZvtDXMPkmoQoitKNBDuK
p2662
atp2663
a(VFergulati
p2664
(lp2665
V18iR9uPJ3TfRtApknqAA8XUSbZVmEUTMHp
p2666
atp2667
a(Vaxlcrypto
p2668
(lp2669
V13QM9SmwHPWtVvWAAUof681GTG9r8AaBvX
p2670
atp2671
a(Vprecrime3
p2672
(lp2673
V1Jzo9uRTtEFfxKvj5mm2uz5xkTtAgZTEPU
p2674
atp2675
a(VOneThousandDealer
p2676
(lp2677
V1NaKWarKp8Sj8ZNXngaFm3353f9JAMA7rS
p2678
atp2679
a(Vyeh-nah-yeh
p2680
(lp2681
V1Tazd914zvZbFKnazFTdzMG3QtDfkq3kp
p2682
aV1Tazd914zvZbFKnazFTdzMG3QtDfkq3kp
p2683
aV1Tazd914zvZbFKnazFTdzMG3QtDfkq3kp
p2684
atp2685
a(Valfredonoodles
p2686
(lp2687
V1N5u87ZnMVJV5HAY3f8qZ4bYrxi1bbj8aW
p2688
atp2689
a(VJarnee
p2690
(lp2691
V1NSNEo6fFvmnj42jw1eG6bhFWwBfrZSvv9
p2692
aV1Q7Ffj2pQyoABNvBNtdBbBGMJq5zR44PTm
p2693
atp2694
a(Vzsol_1
p2695
(lp2696
V1F1qdDmf9CwmaEbM5q3gZYqQjFz5veq6zC
p2697
atp2698
a(VFenix_one
p2699
(lp2700
V1HGkP9LJpHA6oEG96YcQSoRVnADcsD2yMz
p2701
atp2702
a(Vchek2fire
p2703
(lp2704
V33xFiXL3kMuRwMESRmVDTz6wmrb3A1bVZC
p2705
atp2706
a(VJasonLeeH
p2707
(lp2708
V14YfpVEjhKjsqQ26Z5c2Yu7eotFRtWyABN
p2709
aV1KPSRWPLEx5RqYiRKggjSFgyddWEGknzJp
p2710
atp2711
a(VTheBuffDuck
p2712
(lp2713
V1N3WiAG2Gv6uLtAdgYdzCuLKkgiNqgoRc5
p2714
atp2715
a(Vconordb
p2716
(lp2717
V1EZgcgDUqZ5a2zk4uMK3gTNPofKtjStqWR
p2718
atp2719
a(VElectricalTap3
p2720
(lp2721
V1MpriMYVo4BNQyW975WZeaJRdRLUqar5be
p2722
atp2723
a(Vjinwoonlee
p2724
(lp2725
V1N7r6g3YciBn3ktaTHkaruHyDhpRkomDaA
p2726
aV17VBjHFTwKs1CL5erH5jMT3WGfnuxauT3a
p2727
atp2728
a(VDeethzPlays
p2729
(lp2730
V1F1WX5dzkdqnKTuFZfFwd8BMcoScHZUdaU
p2731
atp2732
a(Vconordb
p2733
(lp2734
V1EZgcgDUqZ5a2zk4uMK3gTNPofKtjStqWR
p2735
atp2736
a(Vpulha0
p2737
(lp2738
V193UbYb9Q2GrAb4Lnf2w5C9DxGkMrDFy1E
p2739
atp2740
a(Vtypicalthing
p2741
(lp2742
V1HkiDGVH9hn61FeeW1pD7evdfr8QT6DMuh
p2743
aV1KkSW5NNd5tNJTDMJJpCFv3dbnTHF6M9Pp
p2744
atp2745
a(VNetizen_Cookie
p2746
(lp2747
V199oud38y1b6WoTWJMbyp1Bjchho6AKrwT
p2748
atp2749
a(VPickitPackitSmackit
p2750
(lp2751
V19uVE2gEVD5J6nZVcMFpihtyYnLsBQYjJ3
p2752
aV1PRJerfTP1S4YRdBJ5XNVP6U4ksuim14Mq
p2753
atp2754
a(Vbraddoge
p2755
(lp2756
V18JxZ1sNJzW7fdiA1JwJXjQ1zwVaZx3qKH
p2757
atp2758
a(VOmaha_Poker
p2759
(lp2760
V1hXEWygbbtpYKgKRzHtiQWZQXGANHbCK3
p2761
atp2762
a(Vrr283
p2763
(lp2764
V1Dss5sKJDZ1Kkhh3KRyoekeZpC4S1WehD
p2765
atp2766
a(Veragmus
p2767
(lp2768
V17Q4MX2hmktmpuUKHFuoRmS5MfB5XPbhod
p2769
aV17Q4MX2hmktmpuUKHFuoRmS5MfB5XPbhod
p2770
aV17Q4MX2hmktmpuUKHFuoRmS5MfB5XPbhod
p2771
atp2772
a(VEnjoi4283
p2773
(lp2774
V19EMbcMzbZMVhaZ6qT2pEmzWEF1KWhDwPh
p2775
atp2776
a(Vertelpat
p2777
(lp2778
V15o8CfP4z8cWiZCp5euzNEqXjEFTyNF5Yb
p2779
atp2780
a(Vshayanbahal
p2781
(lp2782
V15v9UfXkYx3tWcAHpo4KUkP6tuQPBwpzKy
p2783
aV15v9UfXkYx3tWcAHpo4KUkP6tuQPBwpzKy
p2784
aV155YDaK9BSuUqpx8jHHQFzk5N5B82cQokx
p2785
aV155YDaK9BSuUqpx8jHHQFzk5N5B82cQokx
p2786
atp2787
a(VZyklon87
p2788
(lp2789
V1LHV2bbAxyCp73nftLpofddaaNuXMAiAjU
p2790
atp2791
a(VPizzaBoyHere
p2792
(lp2793
V13p5iQkqBEVgKmPeJqEL2LBRS44PjX1dZL
p2794
atp2795
a(VAtaraxiaNZ
p2796
(lp2797
V19GP6DAaLZ2St88946sxyADnh5Q9p1dyXa
p2798
atp2799
a(Vrazorjones
p2800
(lp2801
V15Pxy2PEBbwSyhyNyraCcvAL6F3z75Y1Jv
p2802
atp2803
a(Vlunytunes1
p2804
(lp2805
V1K4Py3fXGhdquYnuzzaaZootLtnRFa7wd7
p2806
atp2807
a(Vdeanguk
p2808
(lp2809
V39ee498571b56b28071ad7c2e6557cb6
p2810
atp2811
a(Vethans9999
p2812
(lp2813
V1GBc6H5oPK69agd3wF3YNiK31YqSaG1xy
p2814
aV1425h8SbAq3bbVSUY7eoM51dbmsKFxMnNj
p2815
aV1FLnoHwfXjHqG8iPhmUCkUyfo4HKbNHw83
p2816
atp2817
a(Vjeffanthonyfds
p2818
(lp2819
V1j9eG595dVSULsbFwsJRGeRdoRgDiydB1
p2820
atp2821
a(Vmripad4TZ
p2822
(lp2823
V1ErTjC4PKkCnA7NyRqb5g3M2JQWJ5ZMyfV
p2824
aV1GPHQ6W3VB9TbPWVwXauhARzgvDMzaDy4Q
p2825
atp2826
a(Vgtorrealba
p2827
(lp2828
V32hpM5uCFHFEkV1UuXWfwFef2u7GNKa4Yj
p2829
atp2830
a(Vcosmiccharlie33
p2831
(lp2832
V17nG4jjLZUCEaH1wyvwsrp8CRaEAjva2xx
p2833
atp2834
a(VXeagu
p2835
(lp2836
V1LuheL5ha1VQmScJB4VnBMMbUDf4C6EjFZ
p2837
aV1LuheL5ha1VQmScJB4VnBMMbUDf4C6EjFZ
p2838
aV1LuheL5ha1VQmScJB4VnBMMbUDf4C6EjFZ
p2839
aV1LuheL5ha1VQmScJB4VnBMMbUDf4C6EjFZ
p2840
aV1LuheL5ha1VQmScJB4VnBMMbUDf4C6EjFZ
p2841
atp2842
a(Vgrnqrtr
p2843
(lp2844
V1E8erPEmip9iCkpkrfD7aQG8wGHStK7Nxg
p2845
aV1E8erPEmip9iCkpkrfD7aQG8wGHStK7Nxg
p2846
aV1JjFddFK5ziTSt2LH2N3pqNthRgSCbbkHW
p2847
aV1JjFddFK5ziTSt2LH2N3pqNthRgSCbbkHW
p2848
atp2849
a(Vhighfeeblooper
p2850
(lp2851
V1J3ScgDgcsYok7WcdhPpEr1K3aDzNWRTgC
p2852
atp2853
a(Vgrimeandreason
p2854
(lp2855
V1a6d7a26334f4fe6a61b0bfc5b57a948
p2856
atp2857
a(VBitcoinRap
p2858
(lp2859
V1NcaNzL9swyfQm1nQdAgcc2MY3NcHC5Lqr
p2860
atp2861
a(Vlitecoin-p2pool
p2862
(lp2863
V3J9AGq2aHeqjW13jj1LkaK5kCgZ8EyAjXZ
p2864
atp2865
a(VRapter181
p2866
(lp2867
V13KbdXtfoqxhqHUgL7Qe4XcZhFAJLhC152
p2868
atp2869
a(Vsmithd98
p2870
(lp2871
V19QiVvDdyC8sMPNrX8us159TefrCcS6xeB
p2872
aV19QiVvDdyC8sMPNrX8us159TefrCcS6xeB
p2873
aV19QiVvDdyC8sMPNrX8us159TefrCcS6xeB
p2874
atp2875
a(VCoinCadence
p2876
(lp2877
V1111111111111111111114oLvT2
p2878
atp2879
a(V_miracle-max_
p2880
(lp2881
V17Q4MX2hmktmpuUKHFuoRmS5MfB5XPbhod
p2882
aV1PFk4BEZnw5Y2Tzo7TNr8vK8m5n95k1RcR
p2883
aV19aACUwHD5e1wRQpZKaLiiinfxnNFNGSgh
p2884
aV17iUc7dvA8jiCgGouxG2E2b1K3c6Hv8N1H
p2885
aV1Kg24iZDKax1e4CFR6gCCaQCfs2DL4CiBe
p2886
atp2887
a(Vthe_schnibble
p2888
(lp2889
V12WRTDrnLy7FMHj8b4kNWPJgnDfseTK6cX
p2890
atp2891
a(Vfsck_space
p2892
(lp2893
V1Lm4EVtSgtyPSZuqvUa2cPzqeVtW4muYLe
p2894
atp2895
a(Vdijumx
p2896
(lp2897
V1BonuSr7q9QR163hhpTzqTLPe2MqUXXyzV
p2898
aV1BonuSr7q9QR163hhpTzqTLPe2MqUXXyzV
p2899
atp2900
a(Vjoeysupra
p2901
(lp2902
V1ZZZWcFN2YAzC7EbEK42jtuYZWrznLsgX
p2903
atp2904
a(Vmdubs90
p2905
(lp2906
V12ff4fwdZ9V7ibVnTh8pAzsVjkcWqD73rk
p2907
atp2908
a(Vresearching_bitcoin
p2909
(lp2910
V1dwfpGxqv8JupXAAJ9icTdUFfbFktk8R2
p2911
atp2912
a(Villumenium
p2913
(lp2914
V1Ny4rC5K6zSzKoSJt41hKYkHG7axmg18jP
p2915
atp2916
a(Vton3greaves
p2917
(lp2918
V1EPUdw2eGVHUmRc9wmhQX1pz3vGK8iFjqy
p2919
atp2920
a(Vzant95
p2921
(lp2922
V3LmzcN7f4M8dnvTnoHV3BF8n8i1mLE1udr
p2923
aV1L5ygpdDWSpFhkmMgBpSkcmqzBj3m9jfPX
p2924
atp2925
a(VILikeGreenit
p2926
(lp2927
V1WmTxmJDNcJLhyQhnsrNHBv9yuZ3v8YYd
p2928
aV1jgBTGvCEa8K6hnu9X4J9XE65rrjMctbx
p2929
atp2930
a(Vjustpaulplease
p2931
(lp2932
V18s5gWW3hC8gtoAoNTDRvrG4EvAXpednvP
p2933
atp2934
a(Vtheymos-
p2935
(lp2936
V126VYovSYes8VkwafE4Ekgvqcqhi6nCDx4
p2937
atp2938
a(V-theymos
p2939
(lp2940
V126VYovSYes8VkwafE4Ekgvqcqhi6nCDx4
p2941
atp2942
a(V-theymos
p2943
(lp2944
V126VYovSYes8VkwafE4Ekgvqcqhi6nCDx4
p2945
atp2946
a(VTHEYM0S
p2947
(lp2948
V126VYovSYes8VkwafE4Ekgvqcqhi6nCDx4
p2949
atp2950
a(Vtheymos-
p2951
(lp2952
V126VYovSYes8VkwafE4Ekgvqcqhi6nCDx4
p2953
atp2954
a(Vtheymos-
p2955
(lp2956
V126VYovSYes8VkwafE4Ekgvqcqhi6nCDx4
p2957
atp2958
a(VAffCom6
p2959
(lp2960
V1JCcQjodZHhXpcSRv8C7HxXwjGH4GQ4RWK
p2961
aV18WYrgM8Tf7cVyP3UEhFjHtHr7dHFZW4zd
p2962
atp2963
a(Vkayuli
p2964
(lp2965
V1Pjb2vHTussuYjYf7mZL68LU41U6WVpTAj
p2966
atp2967
a(Vbananana88
p2968
(lp2969
V1vuUbp1hQu10yrnvyKLjz7uTfHK
p2970
atp2971
a(VBitcoinPublisher
p2972
(lp2973
V1vuUbp1hQu10yrnvyKLjz7uTfHK
p2974
atp2975
a(Vjaimewarlock
p2976
(lp2977
V1Fuw5jKxeFnDeEmHjBLqjqZYh6R65jcJaE
p2978
atp2979
a(VThireus
p2980
(lp2981
V39coweGgC8CPZ6hYL1BBEfc1zqbSfHsprW
p2982
aV39coweGgC8CPZ6hYL1BBEfc1zqbSfHsprW
p2983
aV34kQTaJNCTFfSF4sVyQkpADtrZSAAZQXTQ
p2984
aV34kQTaJNCTFfSF4sVyQkpADtrZSAAZQXTQ
p2985
atp2986
a(VILikeGreenit
p2987
(lp2988
V1WmTxmJDNcJLhyQhnsrNHBv9yuZ3v8YYd
p2989
atp2990
a(VNomadStrategy
p2991
(lp2992
V35mZtXrVqd4QKxVRd4aS1h2LDXxNg3nAHY
p2993
atp2994
a(VDRKMSTR
p2995
(lp2996
V18gP5ahmxzcLx6q8fJUctGbwMDJAAsmXxo
p2997
atp2998
a(Vchek2fire
p2999
(lp3000
V143oBJ7eFkpNoVLgfUijjK3BRBZKSJrByw
p3001
aV1LXGc8vLy8LZjtb3DNw2LNuD1da6sSwE6A
p3002
aV1GxuUfmmgmvNwx6EVNDCsG7aAHUSk3TXy3
p3003
aV1GxuUfmmgmvNwx6EVNDCsG7aAHUSk3TXy3
p3004
atp3005
a(VTheAlexGalaxy
p3006
(lp3007
V19KJZ5aqWnrrCaNAS5Pbd4uknPFBxjALRt
p3008
atp3009
a(VArnhemBitcoinstad
p3010
(lp3011
V1ARNheMoSAtBziPhtAw5WdojfAz8WtdvDg
p3012
atp3013
a(VBadMagnum
p3014
(lp3015
V1MN1ooXfkbadpLiYnfeynpibe83NK6LhAJ
p3016
aV179LWczSCcKjWLHB7hQgXFAfku247Qd1p3
p3017
atp3018
a(VShadowShark_
p3019
(lp3020
V12c6DSiU4Rq3P4ZxziKxzrL5LmMBrzjrJX
p3021
aV1HLoD9E4SDFFPDiYfNYnkBLQ85Y51J3Zb1
p3022
aV1FvzCLoTPGANNjWoUo6jUGuAG3wg1w4YjR
p3023
aV15ubicBBWFnvoZLT7GiU2qxjRaKJPdkDMG
p3024
aV1JfbZRwdDHKZmuiZgYArJZhcuuzuw2HuMu
p3025
aV1Lb4CcXPMkzQyXj38JYi6j7Ra4nGGTBZg5
p3026
atp3027
a(Vmolinaa1
p3028
(lp3029
V1F9uvnzpobffnF9e9AabAqnytWif1Zbk2j
p3030
atp3031
a(VPabloW92
p3032
(lp3033
V1JFa5WozkzRquDwthvFBZM3uEjMfnhfK1T
p3034
atp3035
a(VQuasiSteve
p3036
(lp3037
V1JfvgJWTxVk7rqN7UHgtWrZQvFdDgoTLVg
p3038
aV1KqG3jBFiZbSXQWH5bbb7yxqvRiCuRNZ7P
p3039
aV18AGpANy1XV18pku1nk8M3osJfUfoS9RnS
p3040
aV1LavHQQ986BSvENswZfTyyc3FG3GydBRdv
p3041
aV1KD1suSTXgSm5FY1iqaJGjJZTWEAcU5kZ2
p3042
aV18Q6Z5eXbmAvpA6VRt2n1xz2u2sGBakSpR
p3043
aV14gLHUACnQF44QTbN9iv3XGrjepVS8XLSb
p3044
aV14ipGvdSUSaMtR5g4bfaAkVGYTuZB1ZBT1
p3045
aV1BWFT6ZzNaC92cwoySswwunTWmJGUMLDfG
p3046
atp3047
a(Vjaimewarlock
p3048
(lp3049
V12VtW1Zgd7s8p7SkLHv2S6smuyDoeMcoDN
p3050
atp3051
a(Vm1bxd
p3052
(lp3053
V1GSjWERWEREW8798798797987987987
p3054
atp3055
a(Vmcr55
p3056
(lp3057
V1H4ER5YEATbGyQNMG75f98H6GcApyRnKzb
p3058
atp3059
a(VHitMePat
p3060
(lp3061
V1m6JU9iq35z9GU8vxFDUwrenXhiP2W5NR
p3062
atp3063
a(Vhowdoipaywithbitcoin
p3064
(lp3065
V19kztY8dsvD7pQZBA7Da9RAnzD2FyfdadJ
p3066
atp3067
a(Vmytransaction
p3068
(lp3069
V1AYV41j5fyKPcqSHGi2QZNMjG4J4igPGbU
p3070
atp3071
a(Vcase666
p3072
(lp3073
V32ChMjp9ckRDu4QUQcJg24iRU5cW2MAXPr
p3074
atp3075
a(Vlukasplus
p3076
(lp3077
V14w2zfcPVxB9sXG61P89QvM8R4sMhFenxX
p3078
aV14w2zfcPVxB9sXG61P89QvM8R4sMhFenxX
p3079
atp3080
a(VViernas
p3081
(lp3082
V1KyLoMp4vA1KMZYbC1WR7KuWnZdkAi6wwY
p3083
atp3084
a(Vmeganmarchese
p3085
(lp3086
V1BNhEfaMikdQ5gGmJPr5dmR7HtwKmownvw
p3087
atp3088
a(Vjaimewarlock
p3089
(lp3090
V12VtW1Zgd7s8p7SkLHv2S6smuyDoeMcoDN
p3091
atp3092
a(Vsmessinis
p3093
(lp3094
V15XEqBSUJYXqunwuHiiZYMXUPiwRLfvvyH
p3095
atp3096
a(VRL_Betatester
p3097
(lp3098
V15ReCAFsAszZxeL4MBy8PzbKibwHs4WRyo
p3099
atp3100
a(Vsubrosatech
p3101
(lp3102
V1mioGxw34Yqjn7atG6SoiZFLonME5PxJn
p3103
atp3104
a(VAbrahamaltcoin
p3105
(lp3106
V15b8PjLbdQ1iBoHf1Gdn5zMwKxRaKZHZWn
p3107
atp3108
a(VSinnyCal
p3109
(lp3110
V1NDXgokkrWxwisQpGNb9hWwHpE43RQqcSk
p3111
atp3112
a(Vp660R
p3113
(lp3114
V1Ba9fzNTXNfVhdL9UQKjxr3LYYcJH7w35S
p3115
aV1Ba9fzNTXNfVhdL9UQKjxr3LYYcJH7w35S
p3116
aV1Ba9fzNTXNfVhdL9UQKjxr3LYYcJH7w35S
p3117
aV1Ba9fzNTXNfVhdL9UQKjxr3LYYcJH7w35S
p3118
aV1Ba9fzNTXNfVhdL9UQKjxr3LYYcJH7w35S
p3119
atp3120
a(Vsteveeq1
p3121
(lp3122
V1KRSSqLh2gnvMR3MfWwz1MrgUS67anSVsw
p3123
atp3124
a(Vsakkara
p3125
(lp3126
V16QaFeudRUt8NYy2yzjm3BMvG4xBbAsBFM
p3127
atp3128
a(Vbobosit
p3129
(lp3130
V1sKQ96ixM8av7f29fqRsMpgPUfV9etVfn
p3131
atp3132
a(VGunazzi
p3133
(lp3134
V1a56ad3eba5835fce613aae5ee2ed611
p3135
atp3136
a(VPabloW92
p3137
(lp3138
V1JFa5WozkzRquDwthvFBZM3uEjMfnhfK1T
p3139
atp3140
a(VZachonaut
p3141
(lp3142
V1PcGRiK5yCdrFdkG3ApMxpyFM33j9LX9jn
p3143
atp3144
a(VZachonaut
p3145
(lp3146
V14hJdrmb92kXqCxEzJSsSrRCEjn5WndomH
p3147
atp3148
a(Vjamh
p3149
(lp3150
V17rqkpoqt43WTdWjHkYNJ4ibRMRErVBS2U
p3151
aV17rqkpoqt43WTdWjHkYNJ4ibRMRErVBS2U
p3152
atp3153
a(Vwtfbbqqw
p3154
(lp3155
V18DZKrZDsV2Dazyq2HqzMu4TC8ddjx1XF7
p3156
atp3157
a(VGrixM
p3158
(lp3159
V1Fahk2aa4NS4Qds4VDAL4mpNArDEdV2K5K
p3160
atp3161
a(VCoinCadence
p3162
(lp3163
V17rr2mq3WgZFurjDvFWEPQ3iAm2iuWHJd9
p3164
aV17rr2mq3WgZFurjDvFWEPQ3iAm2iuWHJd9
p3165
aV17rr2mq3WgZFurjDvFWEPQ3iAm2iuWHJd9
p3166
aV17rr2mq3WgZFurjDvFWEPQ3iAm2iuWHJd9
p3167
aV17rr2mq3WgZFurjDvFWEPQ3iAm2iuWHJd9
p3168
atp3169
a(Vshayanbahal
p3170
(lp3171
V1BonuSr7q9QR163hhpTzqTLPe2MqUXXyzV
p3172
aV1wiN3QJN7kQnAQV2vqsmt4urHgFFPXMsM
p3173
aV1sYSTEMQCbXykxa26a5h927WTZgvY7nzy
p3174
atp3175
a(VSpeldosa
p3176
(lp3177
V1AS5xCAtPcx1BKEuGYxkBLcU2PzDPzsi5Y
p3178
aV1DNTMygM4NS36S4caNE8kVgqoLUXf2tKtD
p3179
atp3180
a(VZainblaze
p3181
(lp3182
V1CeaxdTX2kfknvARokStTkoSAizEigQ5sa
p3183
atp3184
a(VTheGiv3r
p3185
(lp3186
V1BhXei2ZzdqXQzFWWoDzyDU3kxHXhJ57nQ
p3187
aV1Ac1nwLoKMrGxKnohJK6uAaZtou36Ho33o
p3188
atp3189
a(VWVBitcoinBoy
p3190
(lp3191
V1FUCK1oBgCmbbBjxaybjbEmvkh8RCUdgBx
p3192
aV1FUCK1oBgCmbbBjxaybjbEmvkh8RCUdgBx
p3193
atp3194
a(VPaystamper_com
p3195
(lp3196
V12uPLj6PSz6ULnZi1jXo7Ch1Je1SuqxRcE
p3197
aV1MZCEUCtyJCDkNSLYbPVvAgf9V3CsEw3t
p3198
aV1JEZLaFciACHDEMVd3RXZzPmGcsWEwYQLr
p3199
aV1JvCp9X5Bvvt2kz3EqP5ppkzX62sKgKbqr
p3200
aV14wgeaWz2rKax8iVSWNFSrSsAYNeGyNdkt
p3201
aV1HcuhfTAiQCt6KdMG2rZLXsTcKYj9nLDhS
p3202
aV12uPLj6PSz6ULnZi1jXo7Ch1Je1SuqxRcE
p3203
atp3204
a(VPhyllisWheatenhousen
p3205
(lp3206
V1C4Q1RvUb3bzk4aaLVgGccnSnaHYFdESzY
p3207
atp3208
a(VAnonimousee
p3209
(lp3210
V1CMR18ds3W4tz3MceN7wkm4NsaFW9jxvk9
p3211
atp3212
a(Vmodus
p3213
(lp3214
V1C4Q1RvUb3bzk4aaLVgGccnSnaHYFdESzY
p3215
aV1C4Q1RvUb3bzk4aaLVgGccnSnaHYFdESzY
p3216
atp3217
a(Vyoungflash
p3218
(lp3219
V18JpiMdEEHyWhgYYPzppDUjoYxKAJyPdqB
p3220
atp3221
a(Vthrowaway827423987
p3222
(lp3223
V1MuXT5U74J9oToLY1wsMYAttkNxer3UEwa
p3224
atp3225
a(VLizza2015
p3226
(lp3227
V1QBhGLEMM7fGAMk3uXNV6VqfTfg3TFawKc
p3228
aV1QBhGLEMM7fGAMk3uXNV6VqfTfg3TFawKc
p3229
aV16jum8CHKv6g1rLiCzrcP9Qc7k1ww4XXgx
p3230
aV3QJmV3qfvL9SuYo34YihAf3sRCW3qSinyC
p3231
aV16jum8CHKv6g1rLiCzrcP9Qc7k1ww4XXgx
p3232
aV3QJmV3qfvL9SuYo34YihAf3sRCW3qSinyC
p3233
aV1QBhGLEMM7fGAMk3uXNV6VqfTfg3TFawKc
p3234
atp3235
a(VJoeOak
p3236
(lp3237
V12m9LWGPCJPnfBYvzruR2EqFWDnAEPoXAZ
p3238
atp3239
a(VFiach_Dubh
p3240
(lp3241
V1MienR4vFattHj6XSZjKjDiwDqgxGeq67n
p3242
atp3243
a(Vemergebtc
p3244
(lp3245
V1Gi58H2hERBBf5HJVdQeixt7LXuiV1ve7k
p3246
atp3247
a(Vbencxr
p3248
(lp3249
V38BKDNZbPcLogvVbcx2ekJ9E6Vv94DqDqw
p3250
aV38BKDNZbPcLogvVbcx2ekJ9E6Vv94DqDqw
p3251
atp3252
a(Vdublinjammers
p3253
(lp3254
V1LUD7xavJo1um3toduKCpKu1tcKM4RmgPD
p3255
aV1PTqL5M6EUSS6qauNvcBBh8Z8YtLiuQGd4
p3256
aV1MwRfqWgWSUFa4L8FYon3MoKm2EPQcNZqq
p3257
aV1KQtiRVB7x8h7R7aLbHTqAzN4YNv5d8GQf
p3258
aV1NyWsJBzzfDBpLEA4h1JAQtm3v9KQQM9Z
p3259
aV1HAhy2peNsN3wteF34ZEJ53ESpkkBhro71
p3260
aV1M6ELX8c1g95ApJzcYCsGGipsAeYf7RvWN
p3261
aV1NyWsJBzzfDBpLEA4h1JAQtm3v9KQQM9Z
p3262
atp3263
a(Vwindsok
p3264
(lp3265
V35ZKQenJ5SrntbxFBXc4rabitgtYR5YgmD
p3266
aV35ZKQenJ5SrntbxFBXc4rabitgtYR5YgmD
p3267
atp3268
a(Vcryptoxic
p3269
(lp3270
V1A6AUS3AgVh8rhSgVHjwvqnopFB56iY5aQ
p3271
atp3272
a(VRayNone
p3273
(lp3274
V35ZKQenJ5SrntbxFBXc4rabitgtYR5YgmD
p3275
atp3276
a(VFiach_Dubh
p3277
(lp3278
V1MienR4vFattHj6XSZjKjDiwDqgxGeq67n
p3279
atp3280
a(VJasun721
p3281
(lp3282
V1Fwo9FZd5SLpxiAwXU2SCWWQmFNXewG9ht
p3283
atp3284
a(VBitBidder
p3285
(lp3286
V13xneTUhLNW8rUMJhnL4ey5JGdDkUthxHA
p3287
atp3288
a(Vcreatemultisig
p3289
(lp3290
V122W3VCpe7geUbgkwweuJjR4mZnXuXeekr
p3291
aV1ESjiWTZHrbfPYqZ2SrynUL2bPCLjtFoBz
p3292
aV1As7twLDsf2rP7NmDB8YbH3mF2cETtLBWV
p3293
aV1BjLhK1Z3RQF9SNS8vmGEZMhXJF4LhsMGD
p3294
aV1FuAzcyxzUumjtDQV8XHLPdEuzTbXd6qyS
p3295
aV1J5dXS552r7pRDn65XvJ3bd68vDMyv9cVk
p3296
aV17DCy63ZFg5aPw6soRmJqX2zEELtd368Du
p3297
aV15vsHrSgbfUtqdiuXNNtrEKEhFkeuY6kN7
p3298
aV1E3gsQZdeCCZaTgQyJKgF1i72hVA22hnvy
p3299
aV1MLvAW364BHp3hjnobUo9qhGRDxA2bEgVD
p3300
aV1M4fCdeBTehZXAkmL8rdN1yYh9RTWF7fun
p3301
aV13WSsdKaqwkZ5usbndKcLHWJU2q1XiMmDp
p3302
aV1PnNCXwXrhMmA8jLi8n8QCRWoNsW1UhpA8
p3303
aV15p6vsBwourV8uWFGDUpbGQPRFNAxoGbZd
p3304
aV1HUQ3xARWuiMkZ7b8Q7w4e4p9DTP16Moo1
p3305
aV1JXaBeAJWVLqwWafdxDvgRecdQaE27VEnc
p3306
aV183bcYfLfeaRivAs6LBqpxV159BXBQTQGw
p3307
aV1KsLZj6yA4oG6SGEpWkuQ5dPdKTAm7AzSd
p3308
aV1C1JQbmpkjZNwrJpNJxjwNJCiCj1MvvKsP
p3309
aV1986rWBjPeMRdG82XhBNuHPemZYHRh1zyb
p3310
aV1N4WsUq7GjwVRBdTaZKkxfpz2xAszyYmnr
p3311
aV138vM26EEkumjjLc77YkJ7zYggiRbDbuHc
p3312
aV15vZxFWXUZNWASQqXk9LGTit491xT5Ywjo
p3313
aV1PCPZjQXwDj7jjaVSE7VMShcN3kW3UKaCy
p3314
aV1MnYHMHrxpdDb59KExGjGkpQsJ684mWZat
p3315
aV1GrytY5QmKya2oQRHQLuE78CV3qatFMgaX
p3316
aV1PCPZjQXwDj7jjaVSE7VMShcN3kW3UKaCy
p3317
aV1MnYHMHrxpdDb59KExGjGkpQsJ684mWZat
p3318
aV1GrytY5QmKya2oQRHQLuE78CV3qatFMgaX
p3319
atp3320
a(V_just_a_programmer_
p3321
(lp3322
V16KEqAbG3BonNM47A9hbQJWEgNpKqbTLPn
p3323
atp3324
a(Vbboo
p3325
(lp3326
V1BTCPayb5AdF8fSsR7oews2PpuVpRtamk6
p3327
atp3328
a(Vmperklin
p3329
(lp3330
V19mkjDEAbHTH1Tx4cfUbLSyqBmQ4fmHJxq
p3331
aV19mkjDEAbHTH1Tx4cfUbLSyqBmQ4fmHJxq
p3332
atp3333
a(VMandelDuck
p3334
(lp3335
V32Bzce9bp6rYAFJTAcRn6X6ufeyw7JRSrz
p3336
atp3337
a(Vadambit
p3338
(lp3339
V1FPPAVEeLusbZLxXkmTZWYXgXb3mE8XMci
p3340
atp3341
a(Vcryptovoter
p3342
(lp3343
V1BJ8YqhHimFrHhjhT5vvCb3UYHLFtK1U5m
p3344
atp3345
a(VLauziex
p3346
(lp3347
V35M8YL6r2q5revfV5rWyVfR3P3mtzGcZU6
p3348
atp3349
a(VSmyf
p3350
(lp3351
V15MpAUHj6rtPsk4sceKjurKSs3T2N4mZKT
p3352
atp3353
a(Vmvg210
p3354
(lp3355
V33819028319280312039128310392381
p3356
aV3398989890809809809840329422223
p3357
atp3358
a(VxxDan_Evansxx
p3359
(lp3360
V162mwfUaKQz1YtYLu1tYmwhGQMD5bQjuks
p3361
atp3362
a(Vitisike
p3363
(lp3364
V1SizeQWexshCicTnfPmYESiAymjHyBXKX
p3365
atp3366
a(Vcryptovoter
p3367
(lp3368
V1HqTVZrTmwUT1zLkophbgA4MLbsUhdPtUU
p3369
aV1HqTVZrTmwUT1zLkophbgA4MLbsUhdPtUU
p3370
aV1KZ2vrRafLJZNEVUhhTonCe9J8C7kVUCB8
p3371
aV1KZ2vrRafLJZNEVUhhTonCe9J8C7kVUCB8
p3372
atp3373
a(Vbtcfuncasino
p3374
(lp3375
V12TRajsugcij8hgbfff6YTWFdYBXErCMzn
p3376
atp3377
a(V45sbvad
p3378
(lp3379
V12qLgVrkW561PbpfvokKwfj7CPjCVwwCTS
p3380
atp3381
a(VGandalfBitcoin
p3382
(lp3383
V1Bn9ReEocMG1WEW1qYjuDrdFzEFFDCq43F
p3384
atp3385
a(V45sbvad
p3386
(lp3387
V12qLgVrkW561PbpfvokKwfj7CPjCVwwCTS
p3388
atp3389
a(Vduduqa
p3390
(lp3391
V1Bn9ReEocMG1WEW1qYjuDrdFzEFFDCq43F
p3392
atp3393
a(Vfunkemax
p3394
(lp3395
V1BywkCf912Nx4ywEvWHsjdjurEL6NbEDhY
p3396
atp3397
a(Vrdgrrbbit
p3398
(lp3399
V1MqURBKZSu89ecTjgZ2cpN7pdGUMWz9iJT
p3400
atp3401
a(VMrCallahan
p3402
(lp3403
V1GiRE72f2arESKmbNdSsBV2EE6PLCob2hv
p3404
atp3405
a(Vtaariqlewis
p3406
(lp3407
V17owg8RWb73qfE5HeQk6gg6RAgEUfxPXks
p3408
atp3409
a(Vgowithbtc
p3410
(lp3411
V17owg8RWb73qfE5HeQk6gg6RAgEUfxPXks
p3412
aV39ngTt6DWQRUbzjmx6ucxz7pPvQcm52CL3
p3413
aV3Q9ovFSZ77r4UPfDNdCyJqaQznmzxWxDGU
p3414
aV39coweGgC8CPZ6hYL1BBEfc1zqbSfHsprW
p3415
atp3416
a(Vbobthesponge1
p3417
(lp3418
V1KFHE7w8BhaENAswwryaoccDb6qcT6DbYY
p3419
atp3420
a(Vthe-ace
p3421
(lp3422
V129TQVAroeehD9fZpzK51NdZGQT4TqifbG
p3423
aV129TQVAroeehD9fZpzK51NdZGQT4TqifbG
p3424
aV1PoVHFFCkCwZ8RDnbG5UYgbwVKz2ZsFhDJ
p3425
aV1PoVHFFCkCwZ8RDnbG5UYgbwVKz2ZsFhDJ
p3426
atp3427
a(Vsolomania9
p3428
(lp3429
V17ogg8vh4DuMiSnuXfxYdoMupjfPPm14PM
p3430
aV1Cnuzr4QJu1DKWrVyTDxndNSfXswxbKiEM
p3431
atp3432
a(Vl0gz
p3433
(lp3434
V1NSwywA5Dvuyw89sfs3oLPvLiDNGf48cPD
p3435
atp3436
a(Vente_
p3437
(lp3438
V1GfB4YCqUivZxHxw7dU6woWhRfX4g1WiMq
p3439
aV1GfB4YCqUivZxHxw7dU6woWhRfX4g1WiMq
p3440
atp3441
a(Vckellingc
p3442
(lp3443
V1CFKTgwvRtdgeoUnpc5utHCXTYbUhnR7jS
p3444
atp3445
a(VAnalyzerX7
p3446
(lp3447
V3Jma5Nh2kLjpXmbQ2WWDVj8mMn3Kx8zaNh
p3448
aV3Jma5Nh2kLjpXmbQ2WWDVj8mMn3Kx8zaNh
p3449
atp3450
a(Vmajorpaynei86
p3451
(lp3452
V1MCvYdxmXYZQXeJbzZYdjUJcnRzP4kngWc
p3453
atp3454
a(VMattLoflin
p3455
(lp3456
V1FBbU1PRyv8Joe7CLzJ92ENQbU9jjqkvbV
p3457
aV1FBbU1PRyv8Joe7CLzJ92ENQbU9jjqkvbV
p3458
atp3459
a(VProbablyShouldntDo
p3460
(lp3461
V16TEvvfLf6WwPZVuEQFsMbNGv5ZRmti9jU
p3462
atp3463
a(VArtLenskiy
p3464
(lp3465
V1dwfpGxqv8JupXAAJ9icTdUFfbFktk8R2
p3466
atp3467
a(Vwideawaketoofoten
p3468
(lp3469
V131rRaBjRcQ96Dbb1mYRpZ3RXMWsCrdTwF
p3470
atp3471
a(VGM4N1986
p3472
(lp3473
V1MQDdQ4ACHVW2Y77A2Wke3WGwTBdjEVLA2
p3474
aV13f122AGt1EwB6FgYaAY2SPdtWx6Ca47kb
p3475
aV19QSHVdjWVvgkqxQ9n7M9gE7LsReDzyMct
p3476
atp3477
a(VAnalyzerX7
p3478
(lp3479
V3Jma5Nh2kLjpXmbQ2WWDVj8mMn3Kx8zaNh
p3480
aV3Jma5Nh2kLjpXmbQ2WWDVj8mMn3Kx8zaNh
p3481
atp3482
a(Vbc-info_error
p3483
(lp3484
V17YvYrzJweqNuPJp3k4JV1RpAbFkeoeaT7
p3485
aV17YvYrzJweqNuPJp3k4JV1RpAbFkeoeaT7
p3486
aV1Cqxm9NtrLzC7iYCWZDaNPJooGPciRbFzw
p3487
aV1Cqxm9NtrLzC7iYCWZDaNPJooGPciRbFzw
p3488
atp3489
a(VframeLAlife
p3490
(lp3491
V19SyjrV99DX1bU7TarWRPYviLa1Vzqe1xA
p3492
atp3493
a(Vstarwalkerz
p3494
(lp3495
V1AoRYG1EdAsSMvrAZ8opgsyrHDtxKUQa7
p3496
atp3497
a(Vmeanwhile_in_SC
p3498
(lp3499
V189ZkEJ3HpJ7nB71aj6oV5iWto98xVM7cT
p3500
atp3501
a(VMordan
p3502
(lp3503
V14QigHcusBuPQFCdJVJibQbkKtTJZSD1Da
p3504
aV1LMkCurz7sWnue87BbWo8JH2xC8RjTXoDP
p3505
atp3506
a(Vbasil00
p3507
(lp3508
V18eXmgR5Svoqqa6PaYVrKvbH6hvrp5xe3A
p3509
aV18eXmgR5Svoqqa6JXSMmbNaD4Cs5ThcV1P
p3510
atp3511
a(Vexcelandreward
p3512
(lp3513
V18PYsYzGoVGMATXhh2K8ALXr7moH6ZR9PY
p3514
atp3515
a(VAnalyzerX7
p3516
(lp3517
V3Jma5Nh2kLjpXmbQ2WWDVj8mMn3Kx8zaNh
p3518
aV3Jma5Nh2kLjpXmbQ2WWDVj8mMn3Kx8zaNh
p3519
atp3520
a(Vjeanduluoz
p3521
(lp3522
V13hnsRb7s9LLuPf5Exh9aDTon8f4sUkFeX
p3523
aV13hnsRb7s9LLuPf5Exh9aDTon8f4sUkFeX
p3524
atp3525
a(Vfreebeams
p3526
(lp3527
V13bn4xscMPS2iyC7uXtYDMTsqXiDgwQvsh
p3528
atp3529
a(Vrstn
p3530
(lp3531
V1JutGHszpA8K2D4SzmhESxJm1hYBjLgm6f
p3532
atp3533
a(VBitcoinDreamland
p3534
(lp3535
V1P771tjVh4D9ddAUvaMNuEExct2EtnWGcf
p3536
atp3537
a(VAsiaNexgen
p3538
(lp3539
V1BGXz7jJfwZxeGoveVjg41oESQiBbxpJwL
p3540
atp3541
a(VSatoshisGhost
p3542
(lp3543
V1GCMUyyR42uhxExZGhNKyPre1dTKTLT8sx
p3544
atp3545
a(VCountofmontycrypto
p3546
(lp3547
V1Q9sYRKSfAurw6wWMHkztNZuoRdm5NQAFv
p3548
aV14nGCtVeXTHSPiVzgTiRCf13XaKWVS71tw
p3549
aV1JistxCXWaKb2v9ut56JSX6PdFq7B1DvH8
p3550
aV1Fid9Qpp6cuSnJXSr6uo7ZUygMhzkkfJ3b
p3551
aV1ANqZXPfTef6r3XXvHHiVGjetjwBzzEL6t
p3552
atp3553
a(Vnewretro
p3554
(lp3555
V1E1ppQabUCsJekEJaXv74TwKnGfJ2YJANX
p3556
aV13TEX8Zfj2bvY7RXYy6TaxFHCZc4R5Ha8M
p3557
aV1arD7YrSKsj44ZpSGMTjig3nh2SjqdKjf
p3558
aV1KnbMbHiJGWMAh8f953b29AHt4F1RA4a1E
p3559
aV1KnbMbHiJGWMAh8f953b29AHt4F1RA4a1E
p3560
aV1PevTMzkXHni1njiY1sKsR7c69vRwdyqhw
p3561
aV1PevTMzkXHni1njiY1sKsR7c69vRwdyqhw
p3562
aV1FbjNKrUnEtdSdHsw76CXTY6yJvTckxVKM
p3563
aV1FbjNKrUnEtdSdHsw76CXTY6yJvTckxVKM
p3564
aV13sACCMNr7YPHs8qdXKrTkZWdZZWXu7Tkt
p3565
aV13sACCMNr7YPHs8qdXKrTkZWdZZWXu7Tkt
p3566
atp3567
a(VTheApocalyps
p3568
(lp3569
V1KpHz4MNoruY427gkHpsxGboFJe9KenM6x
p3570
atp3571
a(VAnalyzerX7
p3572
(lp3573
V3Jma5Nh2kLjpXmbQ2WWDVj8mMn3Kx8zaNh
p3574
aV3Jma5Nh2kLjpXmbQ2WWDVj8mMn3Kx8zaNh
p3575
atp3576
a(VProudBitcoiner
p3577
(lp3578
V1CuSL6sTWYNqDfSq1nYUAT8pLBHEnLpFB5
p3579
atp3580
a(VAnalyzerX7
p3581
(lp3582
V3Jma5Nh2kLjpXmbQ2WWDVj8mMn3Kx8zaNh
p3583
atp3584
a(Vbitcoinstreetteam
p3585
(lp3586
V1CDRdd5Md2sqSZkjSVKPQea2hay6ZKmEen
p3587
atp3588
a(VCCFR
p3589
(lp3590
V1BtcRuyyFKsUmw4rhGdiSnKWMPto3m4bvF
p3591
atp3592
a(VAlibitco
p3593
(lp3594
V16RiiW3wUMiid8eYXCvE8F1uj8WDUvuQUy
p3595
atp3596
a(VTimoow
p3597
(lp3598
V1DvutmkwjwiDknAdpHP8ZsrNWqmaqEpBrn
p3599
aV1DvutmkwjwiDknAdpHP8ZsrNWqmaqEpBrn
p3600
atp3601
a(VCyber-Logic
p3602
(lp3603
V385iHtDadCWQ4138x6VD5sbS2fximJNRec
p3604
atp3605
a(Vyayalorde
p3606
(lp3607
V1LLkNuQQ2GkS5DmQzsTxCmErUH8ew6dnDi
p3608
aV1LLkNuQQ2GkS5DmQzsTxCmErUH8ew6dnDi
p3609
atp3610
a(VMonetaryFew
p3611
(lp3612
V1MdDHgGm3azWSKYi5LXFu45Q342M3jhXaJ
p3613
atp3614
a(Vworkfire
p3615
(lp3616
V1NgSJzJp8qc4JDZqQuDBMvJedN87jaarWc
p3617
atp3618
a(VllSourcell
p3619
(lp3620
V1HihKUXo6UEjJzm4DZ9oQFPu2uVc9YK9Wh
p3621
atp3622
a(Vdublinjammers
p3623
(lp3624
V1LUD7xavJo1um3toduKCpKu1tcKM4RmgPD
p3625
atp3626
a(Vgwlloyd
p3627
(lp3628
V1AMENq1zXkX3mHii4HYnDnKEE3hesJCP8G
p3629
aV1AMENq1zXkX3mHii4HYnDnKEE3hesJCP8G
p3630
atp3631
a(Vsaint_quistgard
p3632
(lp3633
V1923qxU74HWWz75LgWTsPE4FT9Zyd6n6bv
p3634
aV152p1VPp2UYceP9BLtJRLoMgoErQRCryTt
p3635
aV1GE26MHLB3pvtQdV9BFtfPc7tD12b72NtE
p3636
aV1AtPMyFrbjvEAZyAHvkQ5SBNyou33m5Eft
p3637
aV18p3VadubeccpJnhBQkyrbs6SQPN5WCf8J
p3638
aV152p1VPp2UYceP9BLtJRLoMgoErQRCryTt
p3639
aV18vssbRHFbSrDttAAg9tX1TtwSvUyCKJwd
p3640
aV17DhzPwQLvpoB1xy1mSt2XTCFmePgGUh2r
p3641
aV1CG4oDeiDcm5QSQhbXmfLmPzdZGANymaxS
p3642
aV1MAqDMezJAe1Am4gcZhKc8etYJqSPBoRfD
p3643
atp3644
a(Vcuddlememilkman
p3645
(lp3646
V1NurHsTmZAA5gRmgnx6E33LdP2UWgV426W
p3647
atp3648
a(VBroten
p3649
(lp3650
V164qx6RhYgXUF2zXjfFWBAvzWMrdT9q8eR
p3651
atp3652
a(VCerberusFTW
p3653
(lp3654
V1DAsfVbCmXWEHYQc1TY1cvYR1urVcLj3hY
p3655
atp3656
a(VfinnSquared
p3657
(lp3658
V1Q6PuxuoFLQFhWN7W9HTfb5nSgGLyxgGHu
p3659
atp3660
a(Vs7orm
p3661
(lp3662
V1K4nPxBMy6sv7jssTvDLJWk1ADHBZEoUVb
p3663
atp3664
a(ValanX
p3665
(lp3666
V1Mw9sSPihokb54zNfihUrG3xt75k19tVHu
p3667
atp3668
a(Vnofishme
p3669
(lp3670
V1QDhxQ6PraUZa21ET5fYUCPgdrwBomnFgX
p3671
aV1QDhxQ6PraUZa21ET5fYUCPgdrwBomnFgX
p3672
atp3673
a(Vthisisgoodnewsright
p3674
(lp3675
V15ovrJk3Yvgj1oLvdW79dpp71d5cit5UTp
p3676
aV15ovrJk3Yvgj1oLvdW79dpp71d5cit5UTp
p3677
aV15ovrJk3Yvgj1oLvdW79dpp71d5cit5UTp
p3678
atp3679
a(Vmhagelstrom
p3680
(lp3681
V1MnTTu23BJLVFu5Aqsn8f2XJeDu1MaYyEq
p3682
atp3683
a(Vcryptodraftsman
p3684
(lp3685
V1EuNiKT8ZskMtiwkC51YUohtByLgXAoir
p3686
atp3687
a(VrCjPrW674G24stVHe
p3688
(lp3689
V1NAfNhsnSVhxxZJnEFUaE8ouDS1wn2uKLy
p3690
atp3691
a(V123BobbyJones123
p3692
(lp3693
V1AAVGVw2JGPTiTNpeXxo2grE7XfPMfKQqM
p3694
atp3695
a(VSparrow-Sean
p3696
(lp3697
V1LTfPacEF2AiES3pFQpk88TFBkbz9Ph7vX
p3698
atp3699
a(Ve2h89he3
p3700
(lp3701
V1J7YRCFT6YERbkq1rWcf4xdG8mJA6ACjT9
p3702
atp3703
a(Vshayanbahal
p3704
(lp3705
V1FEELodoAt6YvGZvtDXMPkmoQoitKNBDuK
p3706
atp3707
a(VSoldToChina
p3708
(lp3709
V1PRWyFKTsQSJaUdX9VKgQNw8JERPw2kMFm
p3710
aV12M4QznuNZH2BRVbLK8SKvNqGTPJpCpST7
p3711
aV12M4QznuNZH2BRVbLK8SKvNqGTPJpCpST7
p3712
atp3713
a(Vchriswen
p3714
(lp3715
V1BdmMnKQ417EpUngAnJCYmjYmD9Cud9iZB
p3716
aV1BdmMnKQ417EpUngAnJCYmjYmD9Cud9iZB
p3717
aV1EAPKSvouAkFJWr5HuNF6wrz4fCN2FBvaY
p3718
aV1EAPKSvouAkFJWr5HuNF6wrz4fCN2FBvaY
p3719
aV1DPx2UJtwCQ3N8eGiuDoZSCB7x3rAPWcXw
p3720
aV1DPx2UJtwCQ3N8eGiuDoZSCB7x3rAPWcXw
p3721
aV1DmSdpiMk97jv1HQYcBHYERbnh3SYm8hyA
p3722
aV1DmSdpiMk97jv1HQYcBHYERbnh3SYm8hyA
p3723
aV16S3kJ2sHNisArxoxzKQo9YezJx1w5rJek
p3724
aV16S3kJ2sHNisArxoxzKQo9YezJx1w5rJek
p3725
aV15om4hjakcJQrCkj61ANeQuk8jS7NMPyio
p3726
aV15om4hjakcJQrCkj61ANeQuk8jS7NMPyio
p3727
aV154q7KjDMhqWcerijGELjMK2d9ZyGrfvCc
p3728
aV154q7KjDMhqWcerijGELjMK2d9ZyGrfvCc
p3729
aV1DmSdpiMk97jv1HQYcBHYERbnh3SYm8hyA
p3730
atp3731
a(Vgreenovni
p3732
(lp3733
V3KgtbGgaX2ngstNpvyv7LwpHSweVeqGbpM
p3734
aV3KgtbGgaX2ngstNpvyv7LwpHSweVeqGbpM
p3735
aV3KgtbGgaX2ngstNpvyv7LwpHSweVeqGbpM
p3736
atp3737
a(Vbreadwalletthrowaway
p3738
(lp3739
V1FT1ikb9QKx5SMEEsnLureLgnRWuB2oN7b
p3740
atp3741
a(Vbjjkent
p3742
(lp3743
V1LdUHTEVxWJhrhKfy4H3VuYDnTHQVjsdBn
p3744
atp3745
a(VFeedthemcake
p3746
(lp3747
V12pCPrWvudnefJCtXQUBcm9z2NogtC3Rix
p3748
aV1J2MJj4HqRaxCexWjiWaZQP94kNEwSos7A
p3749
aV1DNM1TgbL8yYTsDzADw9W17Es2BEezMBpi
p3750
atp3751
a(VOutCast3k
p3752
(lp3753
V1CWHWkTWaq1K5hevimJia3cyinQsrgXUvg
p3754
atp3755
a(Velectrumpsa
p3756
(lp3757
V1xxyasdfasdfasdfasdfasdfasdf
p3758
atp3759
a(Vhodlr
p3760
(lp3761
V1AM3wjbVReoScT3uD9kREcVyGiEUF8p2KB
p3762
atp3763
a(Vpimpingken
p3764
(lp3765
V1QKPRiSdTHJiSdj4L4Z94rbToZjrRo4z8E
p3766
atp3767
a(Vjenvebr
p3768
(lp3769
V1EXnhSQuhwhZxS7yQPPp2v7QcWjToYT4cw
p3770
aV1EXnhSQuhwhZxS7yQPPp2v7QcWjToYT4cw
p3771
aV1EXnhSQuhwhZxS7yQPPp2v7QcWjToYT4cw
p3772
aV1EXnhSQuhwhZxS7yQPPp2v7QcWjToYT4cw
p3773
atp3774
a(Vsteveme71
p3775
(lp3776
V1a6YYZRXkd3XLe5UiUmPRvB9Wdrp5pPRdQ
p3777
aV35Mpdvhtt7MpvKRYHgCKvjWMNSMZjy7vsD
p3778
atp3779
a(VbitcoinsSG
p3780
(lp3781
V1MG6SSwK2qSASM2QgBez2g4YFe3ib4d2eL
p3782
aV13oVzto4JgXuC5g6YdFGVFT7fQPvBF6dbp
p3783
aV17SvZqnJu2YLJxc7efqCLdqD9YgSuanDUb
p3784
aV1CDubGvkrhJJN2HvLjSieVJWdRTaKcGzE7
p3785
aV1MVH3QUfZvdoD9LCDZk3CUCyoKsFZyF2fc
p3786
aV12TPfUbMaPgWnygnJBh4gbufYLLxtqL1of
p3787
aV1JzLthmMkvvAaUDgo3xLfXrqJGKfz1WMQK
p3788
aV1FXPxH5KieBGtBieTXpQPqh8XHDUKRHTo5
p3789
atp3790
a(V3534933
p3791
(lp3792
V1xd8KBdNjdiZeNp7NNwT33Q5UHM9RvHGH
p3793
atp3794
a(VBitcoinTR
p3795
(lp3796
V1KENenhVBdtZWy5FV1pRxZ1dSekXpzXz7C
p3797
atp3798
a(Vbitcoin42
p3799
(lp3800
V1NB9bfcjNLQKgt1Rws7o8ZAvCX1iKV9Jg6
p3801
aV1NB9bfcjNLQKgt1Rws7o8ZAvCX1iKV9Jg6
p3802
atp3803
a(Vstolenboyvideos
p3804
(lp3805
V15pqAWooXSSFCyKzGE8nhSLso2FEeBKPJG
p3806
atp3807
a(Vshayanbahal
p3808
(lp3809
V1FEELodoAt6YvGZvtDXMPkmoQoitKNBDuK
p3810
atp3811
a(Vfelipelalli
p3812
(lp3813
V1FULLKQbziGpTwXyo5oNBaCEJnFMT3gkzJ
p3814
atp3815
a(VThePiGuy2
p3816
(lp3817
V1NKUQPg26RSZ8o1GKxWdbCuJnV133Dg9Te
p3818
atp3819
a(VImmortalicious
p3820
(lp3821
V16nshgEJwW9y8noguSRXFPjarJ1rYHnzYQ
p3822
aV16nshgEJwW9y8noguSRXFPjarJ1rYHnzYQ
p3823
atp3824
a(Vknvsh
p3825
(lp3826
V1Eedd5BmoXA5rzAH6fWm9R8WTVfLTjLx2T
p3827
atp3828
a(Vk0vic
p3829
(lp3830
V1AaKKtfWVVwwUEzwXwQxasvSqmrnTQX6zQ
p3831
aV1NdbyjbAK4kBna2TQV8wNje5TfRR2tWxfJ
p3832
aV1BtxvnnACtYRbWnmgaNu6HN8UfBQW5QtQR
p3833
aV1AaKKtfWVVwwUEzwXwQxasvSqmrnTQX6zQ
p3834
aV1BnNn2LsVbn8DDWx5ABrDF1Vkc2epchf7Z
p3835
aV1PANRuwAet9F6WSVZLC2fkuxTeMFxvdzFZ
p3836
aV12RFmHYjNSpAwLJjMHzAU91zLe9Wd7T2Fc
p3837
aV1MCw31vCtyvtpyeNsmsuVpTFuKEXfmDb7m
p3838
aV1FYgqo8waWDYyjmGqifDtgbSfG7Pp1QA7M
p3839
aV1MY7qYCTsKfkvoXMq6XWYVUGKwsVsY5JjW
p3840
aV1B7k9aTwxAspzrGiQ3shBjB6DLmPPM3jSG
p3841
aV1PwXMcNZVAeDddQ6p9S12vFSAfuHMU1q3W
p3842
aV1MY7qYCTsKfkvoXMq6XWYVUGKwsVsY5JjW
p3843
aV1B7k9aTwxAspzrGiQ3shBjB6DLmPPM3jSG
p3844
aV1PwXMcNZVAeDddQ6p9S12vFSAfuHMU1q3W
p3845
aV13KUvkpxqbS5DiMwQscBar1pBtVvsQHhwM
p3846
aV1BtxvnnACtYRbWnmgaNu6HN8UfBQW5QtQR
p3847
aV19cRmsjcyUfiVPdy7DFu3FUfPhDKbkCruG
p3848
aV17JiGNa1xprKrkvEFNvGtVYf7UekoSTqzE
p3849
aV19cRmsjcyUfiVPdy7DFu3FUfPhDKbkCruG
p3850
atp3851
a(Vxeddmc
p3852
(lp3853
V1Muse5NL7nDPPHVreF2Gkq5wv5XLbC2Qtz
p3854
aV14kgEXiKWCN46BEHVNwYjyuohFN83Uc5Jt
p3855
aV1AFbZuU5PufViRhNCChw8br6beo6K78r2H
p3856
aV1MgM7WMAVteJ3k4PqfyB9AKdaBnHvdxvdG
p3857
aV1J4TJQKgh1phPMcsV8cbRkAhV2Q6V8wW25
p3858
aV1Q2MxBc9Zbe6A35mTcD5jyU8PMr4K6oqGC
p3859
atp3860
a(Vsplawik21
p3861
(lp3862
V1CdbXiWqWZ1vrpYfHGHSpPMGH3eWd89jEA
p3863
atp3864
a(Vsolomania9
p3865
(lp3866
V1huKHNtojs8DuiBvdYfkhzwDde8eNpQ5s
p3867
atp3868
a(Vstevenk1987
p3869
(lp3870
V1FwsACfRyaH6fQhCz6BcQa7oWwyEEKueCP
p3871
atp3872
a(VStolenFromMycelium
p3873
(lp3874
V1NiuibgurU9cUspyt2PHKEvEDmDvb24gwQ
p3875
atp3876
a(Vjcdmpinto
p3877
(lp3878
V12bj8u6cKZoYjWksBpuPVMUj8sSkRRc89b
p3879
aV12bj8u6cKZoYjWksBpuPVMUj8sSkRRc89b
p3880
aV12cfKkiK9C3kfyrWeLP3jt76TmX52GDeRx
p3881
aV14ceUvczuqTsA1mKYBqtpdQ5cc9mQbQrjC
p3882
atp3883
a(VRassah
p3884
(lp3885
V1Rassahgt3XSxKVJ62oSrQJxtH3wk4MKX
p3886
atp3887
a(Vtsm_lo
p3888
(lp3889
V1C4Ecnwk9W5TfBu6284SVJwuu49u9aCHL
p3890
atp3891
a(VAdrian-X
p3892
(lp3893
V17xaJMQTZ8sQe3q5aS95UpvrMYRSAm1E8L
p3894
atp3895
a(VDrSalted
p3896
(lp3897
V1LK3uHXhXPzR6M7AfAMQk4vBgTtQLw2kGC
p3898
aV1LK3uHXhXPzR6M7AfAMQk4vBgTtQLw2kGC
p3899
aV1LK3uHXhXPzR6M7AfAMQk4vBgTtQLw2kGC
p3900
atp3901
a(Vbruce_fenton
p3902
(lp3903
V1GAzfhLyPMQ4GaBwkJFeiHrCNsndyZ1jwr
p3904
atp3905
a(VJohnSpivey
p3906
(lp3907
V132Hzc6ZSwGGzoKYjMNfD8i4kQL2v2Gena
p3908
atp3909
a(VMountBlanc
p3910
(lp3911
V187pCPTAH9UTto2XGdGyDXrkdbdhmWBFbV
p3912
atp3913
a(VMariaBTC
p3914
(lp3915
V1gc9ofUh56DdTY9AWDCXgBrjCRSFRYuh3
p3916
atp3917
a(Vhacknee
p3918
(lp3919
V3B54kkcR76mPoeYHvEVWKG9ntSsSPdhMNM
p3920
atp3921
a(VStonersNight
p3922
(lp3923
V1Mtb73CduVSTXecYqw7HRBnZvHLvgBeHwH
p3924
aV1FLbYhAPddAzXGHdx5PaFTBGMmJQWydATi
p3925
atp3926
a(VPYCBTC
p3927
(lp3928
V1bBRqV5CKamTe6Jf6t1viBNnV1UkLCH8q
p3929
atp3930
a(Vshayanbahal
p3931
(lp3932
V1BTctaLKeYAHJ8AwdmPd5GJMChHrPZCKxg
p3933
atp3934
a(VbutmyhandwasUpFirst
p3935
(lp3936
V108917087533484813854637209432103
p3937
aV354528540427861124024510004743521
p3938
atp3939
a(Vjratcliff63367
p3940
(lp3941
V1FeexV6bAHb8ybZjqQMjJrcCrHGW9sb6uF
p3942
aV12tkqA9xSoowkzoERHMWNKsTey55YEBqkv
p3943
aV12ib7dApVFvg82TXKycWBNpN8kFyiAN1dr
p3944
atp3945
a(VCoinMarketSwot
p3946
(lp3947
V1Kp4k2DxD34opw6Q4coiqpo7R4TGG5YM7e
p3948
atp3949
a(Vmyshinnynewreddit
p3950
(lp3951
V1CckWDvpn8MXiDJ2L9HGDGMDCpLz2DYYuj
p3952
aV1CckWDvpn8MXiDJ2L9HGDGMDCpLz2DYYuj
p3953
aV1Pz8wYGpRgwKCQWYtEMk5GVJ9hrsxAzLHt
p3954
atp3955
a(Vshayanbahal
p3956
(lp3957
V1BTctaLKeYAHJ8AwdmPd5GJMChHrPZCKxg
p3958
atp3959
a(Vknvsh
p3960
(lp3961
V1Eedd5BmoXA5rzAH6fWm9R8WTVfLTjLx2T
p3962
atp3963
a(Vsimcharcoal
p3964
(lp3965
V1BihaQ9SsjW5DonVReG6fUrZuhSGtDHkJA
p3966
aV18uWFVErra4eL2gLAnfsq1EEgueTfjJPmb
p3967
atp3968
a(Vjinwoonlee
p3969
(lp3970
V1GBppkdP7RrZHjCMReGbDWd1zcHp7ASGPB
p3971
atp3972
a(Vsowmaha
p3973
(lp3974
V1BRwBC1ywPpV2LNy9ecGQsYjxZdzUhXpPM
p3975
atp3976
a(Vcoinfire
p3977
(lp3978
V1G5ZmZekitZk5E5rzK8AgjHQXE73ocGmFJ
p3979
atp3980
a(Vcaedesv
p3981
(lp3982
V31oSGBBNrpCiENH3XMZpiP6GTC4tad4bMy
p3983
atp3984
a(Vxeddmc
p3985
(lp3986
V12fTunTAEBr7e4BKK9Z9JejAmC8JDdYqcj
p3987
atp3988
a(VCheekybean
p3989
(lp3990
V1BxSPYHDTekixnBL9HfShW7arhP2iVbD4d
p3991
atp3992
a(Vtoshiromiballza
p3993
(lp3994
V1FYMZEHnszCHKTBdFZ2DLrUuk3dGwYKQxh
p3995
atp3996
a(VSakarias-Corporation
p3997
(lp3998
V1FccbxoSKfbvJBVqh5x939va5wE2p29d7c
p3999
atp4000
a(Vnoitome87
p4001
(lp4002
V1B95Dw47mbhsQo19nRV3UGDojomkwkNTBV
p4003
aV1B95Dw47mbhsQo19nRV3UGDojomkwkNTBV
p4004
aV1B95Dw47mbhsQo19nRV3UGDojomkwkNTBV
p4005
aV1B95Dw47mbhsQo19nRV3UGDojomkwkNTBV
p4006
atp4007
a(Vsir_nacnud
p4008
(lp4009
V18oNCYM3aCQCTGznUGcTXiQyAWqXjvGPhh
p4010
atp4011
a(Vsteauacris89
p4012
(lp4013
V1FYMZEHnszCHKTBdFZ2DLrUuk3dGwYKQxh
p4014
atp4015
a(VGemini6Ice
p4016
(lp4017
V1DYsiB7a9hGWitCRky5wmN9ogeHKsVmNFF
p4018
atp4019
a(VEefogolb7
p4020
(lp4021
V1BHHJaBBPsbMmMy2WCwWoByHtt8MSV3Efp
p4022
aV1BHHJaBBPsbMmMy2WCwWoByHtt8MSV3Efp
p4023
atp4024
a(Vcfordv
p4025
(lp4026
V1aaMFK3SyK5dCfncMeRqv7jdtEZT1DePN
p4027
atp4028
a(Vcoreygu
p4029
(lp4030
V1JYGhDKacmL9MLuDTmP7pmJMsMTzjzyxW6
p4031
atp4032
a(Vduetschpire
p4033
(lp4034
V1Drt3c8pSdrkyjuBiwVcSSixZwQtMZ3Tew
p4035
aV1Drt3c8pSdrkyjuBiwVcSSixZwQtMZ3Tew
p4036
aV1L2JsXHPMYuAa9ugvHGLwkdstCPUDemNCf
p4037
aV1L2JsXHPMYuAa9ugvHGLwkdstCPUDemNCf
p4038
atp4039
a(Vtomwiehler
p4040
(lp4041
V18YwMBd84VbHTGJ8UE2BAwTqDWMhNRhdh1
p4042
atp4043
a(Vsolex1
p4044
(lp4045
V3MXxfNZoifLYdS8wJTpvfeDNPt9ZWuMAaN
p4046
atp4047
a(VJohnnyboyflow
p4048
(lp4049
V1JzsfjC8y8UJnigPotFWvKTMJRMn9Grm7f
p4050
aV1JzsfjC8y8UJnigPotFWvKTMJRMn9Grm7f
p4051
aV1JzsfjC8y8UJnigPotFWvKTMJRMn9Grm7f
p4052
aV1JzsfjC8y8UJnigPotFWvKTMJRMn9Grm7f
p4053
atp4054
a(Vrockettilt
p4055
(lp4056
V12WRnQR85ZUT7dhmaHBNL5dde2QLYieW6v
p4057
aV1B9KrM7bjhJ42qJSWr1KJrNTAP1SNGMpJu
p4058
atp4059
a(VAltoidNerd
p4060
(lp4061
V1MtRBy3VucV45wYZoztWrwNKf4APoVJNeA
p4062
atp4063
a(Vrob2360
p4064
(lp4065
V3G8sLGQVQKy69bjNiDYQhKBRB9emkgCSD2
p4066
atp4067
a(Vbitcointhrowaccount
p4068
(lp4069
V16gMVzqVxtbvKujwGAigLb3RLaZgPtTcaY
p4070
aV1ExSdbUZunQrnst28ZeQXBkkF446EZtXgs
p4071
atp4072
a(VTraderSteve
p4073
(lp4074
V1LDtUv9hrU3ow4DYQrEncFXFpEJSKGp6uX
p4075
atp4076
a(VTraderSteve
p4077
(lp4078
V1GrHGNffioMqegoTJxqhmSFUYHNS7nM5CW
p4079
atp4080
a(Vheltok
p4081
(lp4082
V17ZgzoQUAiCrCgSieYfGhAvToW9kn6uaLt
p4083
aV1GumHq1f5XVnxBjnz78uRgJad2nyE5TgjS
p4084
aV3MXxfNZoifLYdS8wJTpvfeDNPt9ZWuMAaN
p4085
atp4086
a(Vheltok
p4087
(lp4088
V1KbbJey4NBtK2kA5dsw35DUJHTJ7N4TTh3
p4089
aV1FgKqYCWKq9gtByQJmmm9gRqg4j2dBRvtW
p4090
aV1BnkN8XAYTaJnrSdPKwqdwa9wMSt19Nx3K
p4091
aV1JYxRnbKjbfWQEaatYnns1L8Qc8njiNWPu
p4092
aV1GW9RQqyfy2a1PSJoHWCgVwjR6CXSHxaae
p4093
aV1L3kGUGaYMXco1EiUnGYtjtA61D8uQBfLE
p4094
aV18ePL1G2SEetzUroa7e7WyxrKvVMe2CcGt
p4095
aV1DNAhymLAReQycKFMm1pGMRCVucKXTZHRp
p4096
aV1NM8ZvajhdFHpipUhax3R63wse9PpcP4WF
p4097
aV1M3R28L2mSuySaS7Ds3cdLftqrGbtaNos5
p4098
aV1Lv4i6c6TP5NXxbZmjmFtGDBke4wHtWLFp
p4099
aV1A7b9FFQqWCUhYDt34dAH8N2ieueUA7o47
p4100
aV1BvKcZ33HDW5XnLVchNq2rVu6tyAk2wAMz
p4101
aV19XYaasDKwy5pPWgw6brRVnPt9hH4VdpLm
p4102
aV12awVwQ4U7x6VigKD1SxWGLkY5icx1kCq8
p4103
aV17EywDwwxhSwcWN5AiVgBq9PhHj9rvT2Yx
p4104
aV15iS3JRSRqhWMZDRBMEYithhPUFMnE6iW9
p4105
aV1KPiPpYBwsY6dFbxZ83ubNsD3RHqwnf5on
p4106
aV14xqtj7dgwg4VGxmV9z5k9oPHfSQSctFsU
p4107
aV3MXxfNZoifLYdS8wJTpvfeDNPt9ZWuMAaN
p4108
atp4109
a(Vbqr923La
p4110
(lp4111
V1NRR7gLLeKWdP3iwphf8q1zqjJE2w5UFNc
p4112
aV13uJGCedAfPBaxYncZq4tHhuGdxGxHiexN
p4113
atp4114
a(Vfpvhawk
p4115
(lp4116
V17jVL3LR9UG2QVU9H2FDsuQ9JwuwTcrHLe
p4117
atp4118
a(Vunderkuerbis
p4119
(lp4120
V36mwH1Jg3AMVsEQqVaDSe9YFBTGebaHR1A
p4121
atp4122
a(VDoUHearThePeopleSing
p4123
(lp4124
V1wosp76ViUL2Japc9uoY9RqGB3xkrXDme
p4125
atp4126
a(Vlbtc7471
p4127
(lp4128
V18VUDxb7vCs6zeVr6sy52byoNFK377JhYY
p4129
atp4130
a(Vdatavetaren
p4131
(lp4132
V1EFJUipfCHFmmTFkF9vvjFKdBf3VbfvarM
p4133
aV1J4PsqPxu6m9HcRBpdXExa7jnCsjJPozec
p4134
aV1AZVcgGjb64XYzmAXwQyWCmvsZriQoiJw
p4135
aV14fkop53QuyvYMFfuV6GhcQ44dtjoGeHnd
p4136
aV1PppRBYJ9rTDCEDTXFMe3gKb872aeRX1q7
p4137
aV1AdSuMeb4gBtJDEUkpGB1w45qPToCex1UB
p4138
aV1JEC8vYP9cEDSu6N6DXkkYd3RaeWAdsCqN
p4139
aV1FdfSTxmpAzqCwRu454XRWLq8H9tDxLYvd
p4140
aV1Pe5HzHGBEAozmCjo58Gj4pHYJ3uTEQtWM
p4141
aV1JEC8vYP9cEDSu6N6DXkkYd3RaeWAdsCqN
p4142
aV1JoktQJhCzuCQkt3GnQ8Xddcq4mUgNyXEa
p4143
aV1JoktQJhCzuCQkt3GnQ8Xddcq4mUgNyXEa
p4144
atp4145
a(Vbitstampbountyhunter
p4146
(lp4147
V1Q6mXe3vU8XQDjbLssY4ZsKuf3Qf8uUFvF
p4148
atp4149
a(VImnotBobbyJones
p4150
(lp4151
V17pRjW6z5vKiDBXaxSLvMu37UdL7SvdR2V
p4152
aV19Ymm66k1KTasGgBwSK2WQKLkeCQfjCmRg
p4153
aV18QhNeRFkZKqbv6VryVmsSERz6Dm98hH9o
p4154
aV1Gb2WXktSmXm4qCR3wgbA1bawzJdmFDJHb
p4155
aV1Af9nUCxKYRuXeHRDS6v14eV1JXxvUFUqc
p4156
aV1Ar4mwv6J7Ybm6S2ai4f4kCVhu2wSBCAwD
p4157
aV1P7hXhpeU5j4zMuqr97ggDoFmpYKFNUpv
p4158
aV1Bt2CnHQ1sZuJd5QBAWNY4e2JWiiF1GoGj
p4159
aV1FgKqYCWKq9gtByQJmmm9gRqg4j2dBRvtW
p4160
atp4161
a(VTechnologov
p4162
(lp4163
V1L2JsXHPMYuAa9ugvHGLwkdstCPUDemNCf
p4164
atp4165
a(VBitcoinXio
p4166
(lp4167
V1EFJUipfCHFmmTFkF9vvjFKdBf3VbfvarM
p4168
atp4169
a(Valistairmilne
p4170
(lp4171
V1JoktQJhCzuCQkt3GnQ8Xddcq4mUgNyXEa
p4172
aV1JoktQJhCzuCQkt3GnQ8Xddcq4mUgNyXEa
p4173
atp4174
a(VTsuyoku_Naritai
p4175
(lp4176
V1JoktQJhCzuCQkt3GnQ8Xddcq4mUgNyXEa
p4177
atp4178
a(VTsuyoku_Naritai
p4179
(lp4180
V1JoktQJhCzuCQkt3GnQ8Xddcq4mUgNyXEa
p4181
atp4182
a(VFeedthemcake
p4183
(lp4184
V13WMjvvpTPeN6gjpq3vpVszj6uEf68hQCM
p4185
atp4186
a(Vdijumx
p4187
(lp4188
V1DBhsqrTkDnaXpUX3AUxRhrrLfnUoRMEht
p4189
atp4190
a(VBTC-Justice
p4191
(lp4192
V1dafe18e232cd0135e03a11f76dcdcb0
p4193
atp4194
a(Vxjunda
p4195
(lp4196
V1snowqQP5VmZgU47i5AWwz9fsgHQg94Fa
p4197
atp4198
a(VBillistixx
p4199
(lp4200
V1snowqQP5VmZgU47i5AWwz9fsgHQg94Fa
p4201
atp4202
a(Vbits4glass
p4203
(lp4204
V185R9BCP2cbJYbDyHQF1U8yRP854hcVomv
p4205
atp4206
a(Vtherealtacotime
p4207
(lp4208
V13cbkpKW2DdhEUmeGC2h9HyxbBdtc7Wcth
p4209
atp4210
a(Vgoodbtc
p4211
(lp4212
V1DuKPGnQ16TJpDUKS1CgWvrdVKtRTGPgir
p4213
atp4214
a(VMemoryDealers
p4215
(lp4216
V1CeXM2teB5cWqRapGhKdUye9Lhktk3CGAS
p4217
atp4218
a(V8Bit-Bum
p4219
(lp4220
V15p3FgbVLtCx9RShsG66DjLVQCDU2e7VR3
p4221
atp4222
a(Vbitic
p4223
(lp4224
V1KFHE7w8BhaENAswwryaoccDb6qcT6DbYY
p4225
aV1KFHE7w8BhaENAswwryaoccDb6qcT6DbYY
p4226
aV1CjPR7Z5ZSyWk6WtXvSFgkptmpoi4UM9BC
p4227
aV1CjPR7Z5ZSyWk6WtXvSFgkptmpoi4UM9BC
p4228
atp4229
a(Vbci-came-through
p4230
(lp4231
V1JprYyWK4JAXyAEaaNt7Lo4gwm3VWC9dYA
p4232
atp4233
a(Vsamueltate
p4234
(lp4235
V1PSQVYYw4NSxM68A1vuKzXsx2tfLKdpRH5
p4236
aV1MtfvcxToHDyqGzoR2Nve1rfkAPCdBv1oC
p4237
atp4238
a(VAmmadkhalid
p4239
(lp4240
V1MrTyGCw1iLfsMzvtrdG8WX7hGPGmu
p4241
atp4242
a(VBitshara
p4243
(lp4244
V1NxNSD5R1JuWmPvQXgohcfyrqHVHvj3nZV
p4245
atp4246
a(Vbitcoinnewby
p4247
(lp4248
V14VC3LJcFHTaox1iW285f7RYTGXd14nyf5
p4249
atp4250
a(Vjustalittleoldman
p4251
(lp4252
V1HePWgC6ySBFk6Was1fJuykA31bRapeeHk
p4253
atp4254
a(VMisterBeliever
p4255
(lp4256
V194brHnCSt5rAeMYWEsUa7rJPAn8Y8HB2Y
p4257
atp4258
a(Vliovch
p4259
(lp4260
V1H8YqHN1H5dwrV5aL3SZJXmG57PxDWEJqN
p4261
atp4262
a(VRun2Rescue
p4263
(lp4264
V1AS3TiTqgJZK6CfNfqcbPXSx4PTFvfghvF
p4265
atp4266
a(Vbithernet
p4267
(lp4268
V1PGfLgFtRHgdgvPNvmHMjtsWwF4fyG1jvh
p4269
aV1PGfLgFtRHgdgvPNvmHMjtsWwF4fyG1jvh
p4270
aV1824bso2XgKTm7XThA75A2gdMpt3jSxW5M
p4271
aV1824bso2XgKTm7XThA75A2gdMpt3jSxW5M
p4272
atp4273
a(Viamthinksnow
p4274
(lp4275
V1HXq2DHd4hJMiV7FgkM6mD88AsW9UP6U9d
p4276
atp4277
a(Vcherok420
p4278
(lp4279
V12EBYqSbXqDVRUCZQtQKHXZbidj8Rgh4xE
p4280
atp4281
a(VTodoJuegos
p4282
(lp4283
V1JsegAVbxXskA6VFuPuC37sPpkosnuXYRb
p4284
atp4285
a(Vspadmin
p4286
(lp4287
V15jhLpxMvH2Fz1rg9Nhei2Ki5gurFZsmQA
p4288
atp4289
a(Vzluckdog
p4290
(lp4291
V1CkrQEuoo7vX4YKjNPkgWExnRwEp9fVPaP
p4292
aV1L4BGWV5gouT2zX2PgsgyzH5hDKThzN9xa
p4293
aV1MFz2bnUzPRXUZmi4JaCi9J1Gvgp883mH4
p4294
aV1AonDxGgP6mk79YYgP3kZvjo5p7LWX77Q2
p4295
aV193cMMMsnfPp1NAdnud9tJCk9WTBVXL6Nw
p4296
aV1PxEeikjqCU2L5nS5vxAuMzhLqYx5erVuB
p4297
aV19tjMYDuuwyBbUA3mo3FpKw7pQp7A1aR4T
p4298
aV12yyGP7aHeJL18rzSXXaQ94uX5vN34t4iq
p4299
aV1Ltb2vCU8bEg62vZzhvQeUxLLYzUXRXTfi
p4300
aV1L5RoTFTEupVJ8uVuFrDEJE3aN2D7T9nLQ
p4301
aV1JhbFzMs2eAQHeuQZAkMCNvk2ZyZQiCeRw
p4302
aV1Cg9JmZzve5kX5mQoSy1kznA2DrHtTS1aF
p4303
atp4304
a(Vpmam
p4305
(lp4306
V1E9QDjSzUMuYdy4vePXxZhmkGeopkm1VfZ
p4307
aV1CvBmeNZY7wgg5fyxfNd6vJzHN6EyhrHPs
p4308
aV3LzDzKkatQRXuQ6UxTcWQLuwuhH5nt7TJc
p4309
atp4310
a(Vverxic
p4311
(lp4312
V1NDmX336zK4ntTLDqbpK9dWk8qNB81z2Q6
p4313
atp4314
a(Vwserd
p4315
(lp4316
V1i7cZdoE9NcHSdAL5eGjmTJbBVqeQDwgw
p4317
aV1E9QDjSzUMuYdy4vePXxZhmkGeopkm1VfZ
p4318
aV1CaGxqCQv2ofqLf37HCUQoLujzRMaz74LK
p4319
aV1CaGxqCQv2ofqLf37HCUQoLujzRMaz74LK
p4320
aV1CkrQEuoo7vX4YKjNPkgWExnRwEp9fVPaP
p4321
aV193cMMMsnfPp1NAdnud9tJCk9WTBVXL6Nw
p4322
aV1Cg9JmZzve5kX5mQoSy1kznA2DrHtTS1aF
p4323
aV1AonDxGgP6mk79YYgP3kZvjo5p7LWX77Q2
p4324
aV1JhbFzMs2eAQHeuQZAkMCNvk2ZyZQiCeRw
p4325
aV1L5RoTFTEupVJ8uVuFrDEJE3aN2D7T9nLQ
p4326
aV1Ltb2vCU8bEg62vZzhvQeUxLLYzUXRXTfi
p4327
aV12yyGP7aHeJL18rzSXXaQ94uX5vN34t4iq
p4328
aV19tjMYDuuwyBbUA3mo3FpKw7pQp7A1aR4T
p4329
aV1PxEeikjqCU2L5nS5vxAuMzhLqYx5erVuB
p4330
aV1MFz2bnUzPRXUZmi4JaCi9J1Gvgp883mH4
p4331
aV1L4BGWV5gouT2zX2PgsgyzH5hDKThzN9xa
p4332
aV1E9QDjSzUMuYdy4vePXxZhmkGeopkm1VfZ
p4333
atp4334
a(VElwar
p4335
(lp4336
V1i7cZdoE9NcHSdAL5eGjmTJbBVqeQDwgw
p4337
atp4338
a(VOutCast3k
p4339
(lp4340
V1CWHWkTWaq1K5hevimJia3cyinQsrgXUvg
p4341
atp4342
a(V7632890
p4343
(lp4344
V1Ka1auT1kSzTxZ8EPb1aY8R93NXirJxyzi
p4345
atp4346
a(VTodoJuegos
p4347
(lp4348
V1JXCsUGCoeiqACgxTRBDLB6wgRz31XiHaE
p4349
atp4350
a(Voraclechain
p4351
(lp4352
V1M72Sfpbz1BPpXFHz9m3CdqATR44Jvaydd
p4353
aV1M72Sfpbz1BPpXFHz9m3CdqATR44Jvaydd
p4354
aV1M72Sfpbz1BPpXFHz9m3CdqATR44Jvaydd
p4355
aV1M72Sfpbz1BPpXFHz9m3CdqATR44Jvaydd
p4356
aV1M72Sfpbz1BPpXFHz9m3CdqATR44Jvaydd
p4357
atp4358
a(Vdsterry
p4359
(lp4360
V14TToQacby7qxiMUxSEwRESacjSmfBjfz5
p4361
aV1KCnK74ceyzHgA3sHKNFneQoD5XrbTS9bb
p4362
aV1C643WVFEV6pMcurJHpm2yxmUCXXcx3ctt
p4363
atp4364
a(VAdopt-a-Family
p4365
(lp4366
V12koQbc2eo7M1hhoCCmNpMDtw1NL9w5jQL
p4367
atp4368
a(VDaviBatista
p4369
(lp4370
V1MPmiFPvcN3SiL82pK1kP3Gn6evDxS4TgC
p4371
atp4372
a(Vrenotify_dev
p4373
(lp4374
V16x4JYhgPneVSduwB97YAVv2zbSVHsSf7e
p4375
aV1Ca1XnEt2b1owcKvPtguv8GjhoK4Q9vmWx
p4376
aV19RuwrvDXAWwJ4WJJ7bDub4TpdiH1h2GrW
p4377
aV37tRp3nfUF62vpUQHMEBbTvPyDp9tiEZjc
p4378
atp4379
a(VTheWoodCollector
p4380
(lp4381
V1LatheNNRsWhSZBcFvXpkZd1P3Wz4yA3Vz
p4382
atp4383
a(Vsaigoned
p4384
(lp4385
V3MDRWijcjF4f4HiGmVdMQbGKPxq3vpMk6
p4386
atp4387
a(Vseriouslytaken
p4388
(lp4389
V1LtPtNAZwsDJpVhMAmA9ptS4WdvWirXmkm
p4390
aV13aBPcyehRseJsejcXeC1wa87uusGMZF6A
p4391
atp4392
a(VJasonLeeH
p4393
(lp4394
V18GzUgDk6gdM2W2DawhyeW13Qaxq6faWsd
p4395
atp4396
a(Vrnvk
p4397
(lp4398
V1GPWzXfpN9ht3g7KsSu8eTB92Na5Wpmu7g
p4399
atp4400
a(Vthebithunt
p4401
(lp4402
V1KStX62TuU8qXDh4uXhAeCEjstyMy5yrrf
p4403
aV1JHU2BopvRtLcn9JSbiv9gSoc4bTWeVtYA
p4404
atp4405
a(Vbtcrobbed
p4406
(lp4407
V16o7dG2j9bJ7zzkBiwhz3jLDQvwFpL9w9j
p4408
atp4409
a(VFuyukiWataru
p4410
(lp4411
V1KWass9ULct3wSb1HLYbBnBJP34XxoYmHX
p4412
atp4413
a(VLetsSeeWhatsUpThere
p4414
(lp4415
V1FK26yqFG9c2bDUVudv6Lg8jXAUYSdUQM
p4416
aV13p5iQkqBEVgKmPeJqEL2LBRS44PjX1dZL
p4417
atp4418
a(VLittleTyke
p4419
(lp4420
V1N9FBuWfE65eN7FeULsgKGyn65497rJH2R
p4421
atp4422
a(VRaccoon_Expert_69
p4423
(lp4424
V1Mn6LizscDUyfGUPzjKubBSPJhdijSUYhM
p4425
atp4426
a(VGeniusJesus
p4427
(lp4428
V1NQwzyqUX4VTyCkZHiGYZYJgYLizuehSqp
p4429
aV1BXVBK7jocfMKSY4u6SCp522tj9biG8Z8u
p4430
atp4431
a(VBennyBerserk
p4432
(lp4433
V1BfpTygfhvGqwCnG3nqDaEyrkQQxunJUGM
p4434
atp4435
a(Vspottedmarley
p4436
(lp4437
V3JHrB9Me1ZBs6XLtMBXMLZsTtRnopjes3L
p4438
aV3JHrB9Me1ZBs6XLtMBXMLZsTtRnopjes3L
p4439
atp4440
a(VReinbowz
p4441
(lp4442
V16wd8DuiGRhBtJDeoS3fvTTrqMhjgU1fE3
p4443
aV16wd8DuiGRhBtJDeoS3fvTTrqMhjgU1fE3
p4444
atp4445
a(VRussoNC
p4446
(lp4447
V35ZBgGBHUmeWV7JFKa1S9RFdmtxZoVuzaP
p4448
atp4449
a(VLostCoinsKickingSelf
p4450
(lp4451
V12V4dq4Y3sMk1WUmQSuiCA5wK8RPWAwMw7
p4452
aV1AeaZr5d52sz8Ztcq6NL6bjxinEPzf3hrt
p4453
aV1Pu51bwzxtw75ETWdY1YCaCvxFqu3d1nA7
p4454
aV18MecUVBiwLqqVgHqK44HNXe2CUvapuNyA
p4455
atp4456
a(Vjaykayaway
p4457
(lp4458
V12VrVY8f13Tr2EAYSTYb4MQkqTg9uDoG4n
p4459
atp4460
a(VBTCFinance
p4461
(lp4462
V1MaUTmUFocxB1oFuixwRcae2jWeQQAnpQA
p4463
atp4464
a(VBitsparkHK
p4465
(lp4466
V1da7417c0d2c842e9d0ea31022be05a3
p4467
atp4468
a(Vjonstern
p4469
(lp4470
V1HZwkjkeaoZfTSaJxDw6aKkxp45agDiEzN
p4471
aV36f9dsGq4sw1xy44ZAuMQ1AAiAyHZxBagF
p4472
aV36f9dsGq4sw1xy44ZAuMQ1AAiAyHZxBagF
p4473
aV1FsVcdeHbpvUVT3gjeuVR2ZSDnpcsJMsLL
p4474
atp4475
a(Vwachirat
p4476
(lp4477
V1H9CwCUwQWDXwZ5wrnP5sm6Lg8iK5Zud8N
p4478
atp4479
a(VCoinCadence
p4480
(lp4481
V1111111111111111111114oLvT2
p4482
aV1111111111111111111114oLvT2
p4483
aV1BitcoinKicksAss1111111111114BbAUx
p4484
aV12TisTrueWithoutALie22222221wT3qjn
p4485
aV1CertainAndMostTrue2222222225YPnJF
p4486
aV12ThatWhich1sBe1ow1sAs222221y3G7mv
p4487
aV12ToPerformTheMirac1es222221zShqDE
p4488
aV12ofThe1Thing222222222222221wv1hge
p4489
aV1AndAsA11ThingsWereFromThe1xxdJJ2U
p4490
aV1ByMeansofTheMeditation22221xJd9GS
p4491
aV12ofThe1xxxxxxxxxxxxxxxxxxxy1aqzJW
p4492
aV12ThusA11ThingsWereBornFrom2vX3xAk
p4493
aV191tsFather1sTheSun2222222225iM4gY
p4494
aV191tsMother1sTheMoon22222221z3BtXD
p4495
aV12TheWindCarried1t1n1tsBe11y31r5NB
p4496
aV191tsNurse1sTheEarth22222221zkkvAq
p4497
aV12TheFatherofTheWho1eWor1d2249xs5g
p4498
aV191sHereXoXoXoXoXoXoXoXoXoXo72uqJv
p4499
aV12YouWi11SeparateTheEarth2223tzWxE
p4500
aV1FromTheFire11111111111111113MzD3d
p4501
aV13Sweet1yWithGreatSki11x3332wyNKnf
p4502
aV12oXoXoXofTheWho1eWor1dXoXoXhjQBMS
p4503
aV1F1eeFromYou21111111111111111t6TRM
p4504
aV1Phi1osophyofTheWho1eWor1d5547QMgV
p4505
aV191t1sFinishedWhat1HaveSaid539kgve
p4506
aV1i7cZdoE9NcHSdAL5eGjmTJbBVqeQDwgw
p4507
aV1i7cZdoE9NcHSdAL5eGjmTJbBVqeQDwgw
p4508
aV13Df4x5nQo7boLWHxQCbJzobN5gUNT65Hh
p4509
aV1JEC8vYP9cEDSu6N6DXkkYd3RaeWAdsCqN
p4510
aV1FeexV6bAHb8ybZjqQMjJrcCrHGW9sb6uF
p4511
aV1HQ3Go3ggs8pFnXuHVHRytPCq5fGG8Hbhx
p4512
aV1PnMfRF2enSZnR6JSexxBHuQnxG8Vo5FVK
p4513
aV1AhTjUMztCihiTyA4K6E3QEpobjWLwKhkR
p4514
aV1EBHA1ckUWzNKN7BMfDwGTx6GKEbADUozX
p4515
aV1DiHDQMPFu4p84rkLn6Majj2LCZZZRQUaa
p4516
aV194DnvmLR2HULRvxUsVag8mn2fm7dA3U2B
p4517
atp4518
a(VtiyoT
p4519
(lp4520
V124rY6VPPVT9qJLJVhePKssrEzbVVaCn62
p4521
atp4522
a(Vdublinjammers
p4523
(lp4524
V12c6DSiU4Rq3P4ZxziKxzrL5LmMBrzjrJX
p4525
atp4526
a(VPayRail
p4527
(lp4528
V1AzSBgBkipyrc4APkL8C2AB1LQbbVnnnmD
p4529
atp4530
a(VBeijingBitcoins
p4531
(lp4532
V1M4yNbSCwSMFLF9BaLqzoo2to1WHtZrPke
p4533
atp4534
a(VCoinGamez
p4535
(lp4536
V1EqqRCfLTFb7dp2gfRu5JBeLGJ5sanC4Zu
p4537
aV1EqqRCfLTFb7dp2gfRu5JBeLGJ5sanC4Zu
p4538
aV1EqqRCfLTFb7dp2gfRu5JBeLGJ5sanC4Zu
p4539
aV1EqqRCfLTFb7dp2gfRu5JBeLGJ5sanC4Zu
p4540
aV1EqqRCfLTFb7dp2gfRu5JBeLGJ5sanC4Zu
p4541
aV1EqqRCfLTFb7dp2gfRu5JBeLGJ5sanC4Zu
p4542
aV1EqqRCfLTFb7dp2gfRu5JBeLGJ5sanC4Zu
p4543
aV1EqqRCfLTFb7dp2gfRu5JBeLGJ5sanC4Zu
p4544
atp4545
a(Vmusthodl
p4546
(lp4547
V30ceb1967be98ed871bb8c50375b9e96
p4548
atp4549
a(Vcammyjee
p4550
(lp4551
V1CPGByjASvkLN7mLZP9cz4nRaaUXHsEXtp
p4552
atp4553
a(VGraavy
p4554
(lp4555
V1EV2i5ha3LoAXkGJhyiRQHarNsTB9dsuTK
p4556
atp4557
a(Vd57heinz
p4558
(lp4559
V1HhZiiR5wM97Z9ZCVwa3uhFhjW5wnbsAAi
p4560
atp4561
a(Vslowmoon
p4562
(lp4563
V1KeBs4HBQzkdHC2ou3gpyGHqcL7aKzwTve
p4564
atp4565
a(VRenaissanceYouthNYC
p4566
(lp4567
V13mkviM9FjqCozeFrQeNUBRbPJ4YjX8Tts
p4568
atp4569
a(Vjamh
p4570
(lp4571
V1AiAot74QDm4gRk7sLi4nsXNvwqFxe4PJd
p4572
aV1AiAot74QDm4gRk7sLi4nsXNvwqFxe4PJd
p4573
aV1AiAot74QDm4gRk7sLi4nsXNvwqFxe4PJd
p4574
aV1AiAot74QDm4gRk7sLi4nsXNvwqFxe4PJd
p4575
aV1AiAot74QDm4gRk7sLi4nsXNvwqFxe4PJd
p4576
atp4577
a(Vddmnyc
p4578
(lp4579
V1KffDR6tuRkb2GpMcj73k35qG2uy8V5xzd
p4580
aV1KffDR6tuRkb2GpMcj73k35qG2uy8V5xzd
p4581
atp4582
a(VYeah-BUDDY
p4583
(lp4584
V15gkDxvqgtxtrHyV5dpaMw9aPbaXmJUEFq
p4585
atp4586
a(Vbitcoin6518
p4587
(lp4588
V1PGRG3C4HNr1KY7N3RFVVmBn6T8tA21gRw
p4589
atp4590
a(VBosDoge
p4591
(lp4592
V18ZqXsnt1T6rQhufoTNLae2TcMLT5xcVK5
p4593
atp4594
a(Vanon8653
p4595
(lp4596
V13eCq16hGMqUCpppPJuMi5Btfy7AVCUmFr
p4597
atp4598
a(Vempeopled
p4599
(lp4600
V1CjNWP7btG7UdDwgc9xYgUdWGVx67WGzcH
p4601
atp4602
a(VTerreCiel
p4603
(lp4604
V177AbtUPi7P1WNeNTshsJ964P3P3mE8Grq
p4605
atp4606
a(Vtherumking
p4607
(lp4608
V1PFXEtZAumvuF8YQw1cx3X5KnDV3C5sy4t
p4609
atp4610
a(Vempeopled
p4611
(lp4612
V1CjNWP7btG7UdDwgc9xYgUdWGVx67WGzcH
p4613
atp4614
a(Vfpvhawk
p4615
(lp4616
V18LYq9qDVwM8t7MTk8Eeak6JiAgc5i1J2N
p4617
atp4618
a(Vbitcoin_baby
p4619
(lp4620
V1GCm5R8SznGhjbKowWGwZAiwtWhmLnE5zH
p4621
atp4622
a(Vcherker
p4623
(lp4624
V1FmuMnEunDiiYh5rgDdrcnCYAGQh1msGdi
p4625
atp4626
a(Vcryptotronic
p4627
(lp4628
V1K1aEMnFkxQay8NBQ4WKFNdBE8x1ygAYXy
p4629
atp4630
a(Vbusterroni
p4631
(lp4632
V1CheerFzhqhq9W3Y75KZH2QnFxEeweJoKg
p4633
aV1CheerFzhqhq9W3Y75KZH2QnFxEeweJoKg
p4634
atp4635
a(VKlazzik
p4636
(lp4637
V1L2dGTSeQBF9kynC3pf8ti1jSEEouBZfHr
p4638
atp4639
a(VLivingSaladDays
p4640
(lp4641
V16DsNY5LBZxeTXCtTWw17nHi5smyZFwE62
p4642
atp4643
a(Vartur_easybitz
p4644
(lp4645
V1NDQEjqmdiYG8VQ4u6Sd8oAyGrNtgAvUd8
p4646
aV1NDQEjqmdiYG8VQ4u6Sd8oAyGrNtgAvUd8
p4647
atp4648
a(Vmartinus
p4649
(lp4650
V1A81UAQN5d4z9gxL2qSoyp1hpdK6EfWNMY
p4651
atp4652
a(Vfuckcloudflarehard
p4653
(lp4654
V31476602e2cbc1c7b61c07140a9af5fb
p4655
atp4656
a(VMintpalInvestigator
p4657
(lp4658
V1Eeu3H3AxkjxoJTF2GtGNDpAjJ6ENNZKsi
p4659
atp4660
a(Vbitcoinfan87
p4661
(lp4662
V16iNJB46g9KuncfeJhbXjjSL1PCqS5z4Ln
p4663
atp4664
a(Vlost_them_all
p4665
(lp4666
V13Z8pisGbS4QonggxMPdkPrxrtBEnNxoSg
p4667
aV13Z8pisGbS4QonggxMPdkPrxrtBEnNxoSg
p4668
atp4669
a(VMintpalInvestigator
p4670
(lp4671
V1NjBaY8fKg85TfCvP1AoQGUSXjifD5Nw2G
p4672
atp4673
a(Vgooglemaster1
p4674
(lp4675
V14RiyQmNkBAcHobhNRQ6KVB2FP2YQ6KkBQ
p4676
atp4677
a(Vguesswhoimback
p4678
(lp4679
V1EHNa6Q4Jz2uvNExL497mE43ikXhwF6kZm
p4680
atp4681
a(Vlazurloner
p4682
(lp4683
V18129HkPNjxDvUDFFCpgGgGT2SaRnmYWyr
p4684
atp4685
a(Vattila_rawfare
p4686
(lp4687
V13FhsupC5tMeEthTgbFTAQZtSfWJjqmdgm
p4688
atp4689
a(Vattila_rawfare
p4690
(lp4691
V13FhsupC5tMeEthTgbFTAQZtSfWJjqmdgm
p4692
atp4693
a(VLiquid00
p4694
(lp4695
V1jjrhKg6vwtSHHFZEiR3vVAcjgLohShPp
p4696
aV1jjrhKg6vwtSHHFZEiR3vVAcjgLohShPp
p4697
atp4698
a(Vcaptaintod
p4699
(lp4700
V18USXYcaAMfMTyNyn1795KGNsV6E15xQbt
p4701
aV16itdFoTN5HSKqJG6Jxh9znbT7n2oEViGy
p4702
aV1NugKS5NAmarCwmG3VvHR7oD2Z6LR2y1Qa
p4703
atp4704
a(Vphlogistonical
p4705
(lp4706
V18ar3cTH2KdasTUZDW8Y6UH2RsynLbxhMW
p4707
aV18ar3cTH2KdasTUZDW8Y6UH2RsynLbxhMW
p4708
atp4709
a(Vsmartchar
p4710
(lp4711
V1957R2MBNmDXekdWjBSmNZ5ccEVqvTJUAw
p4712
atp4713
a(VDiabolicus666
p4714
(lp4715
V1CEq15CvdwHZmkfpWxse1UDGBxLynQepTe
p4716
atp4717
a(Vgtir123
p4718
(lp4719
V1BzS1cdSWnprxjkeAadjHiwe9eTvVzRs7b
p4720
atp4721
a(Vbtcsolutionsca
p4722
(lp4723
V1M9GNEwFhzAbb5E7E5rZtzqspCV72aUBJ
p4724
atp4725
a(Vunusedredditname
p4726
(lp4727
V1FR1W2KSAaVcU7Q3VUuQoeU5qm21Hb5XNn
p4728
aV1FR1W2KSAaVcU7Q3VUuQoeU5qm21Hb5XNn
p4729
aV1FR1W2KSAaVcU7Q3VUuQoeU5qm21Hb5XNn
p4730
atp4731
a(VBitBen
p4732
(lp4733
V19xb2pAzyv7feFkBhbh3n3rtBJ9JPTufm
p4734
atp4735
a(Vkill_kittens
p4736
(lp4737
V176TEGAEGzuuVoNr3Jix2Pq1AVCfr4YBMQ
p4738
atp4739
a(Vhughht5
p4740
(lp4741
V1QFBftMa7R4NxEbHWdVGAA9Bko6ADdX1yn
p4742
aV127q3f6vWfrScrRtYffnYdkFoCAVUkJf76
p4743
atp4744
a(Vlightcoin
p4745
(lp4746
V1M72Sfpbz1BPpXFHz9m3CdqATR44Jvaydd
p4747
aV1M72Sfpbz1BPpXFHz9m3CdqATR44Jvaydd
p4748
aV1CDDq2HURQy4969sneSdufcsiQo6Szm2BK
p4749
atp4750
a(Vmudslag
p4751
(lp4752
V19bBwiFrAaCLxZZoS4grTDoFFVszxzvPMo
p4753
atp4754
a(VDiabolicus666
p4755
(lp4756
V159SCycgn8weAy2XGUEhD6V1RTFni7E3iq
p4757
aV19Gt9VKmmyMpMHEv6dkf8ddwmwddoSoJ8w
p4758
atp4759
a(Veahmadov
p4760
(lp4761
V1LNWw6yCxkUmkhArb2Nf2MPw6vG7u5WG7q
p4762
atp4763
a(Varhuaco
p4764
(lp4765
V1DiRy9Giiq1GCkAD7VMSrXoKVe2dimnovm
p4766
atp4767
a(VWolfTails
p4768
(lp4769
V1JM4jmSDXK6B9vkYers9Rj5V65ZR7fRG2Z
p4770
atp4771
a(VC41n
p4772
(lp4773
V15xuksghSc8aPRBzTSYTs81uFjS4NBbvF1
p4774
aV15xuksghSc8aPRBzTSYTs81uFjS4NBbvF1
p4775
aV15xuksghSc8aPRBzTSYTs81uFjS4NBbvF1
p4776
aV15xuksghSc8aPRBzTSYTs81uFjS4NBbvF1
p4777
aV15xuksghSc8aPRBzTSYTs81uFjS4NBbvF1
p4778
atp4779
a(VBootySenpai
p4780
(lp4781
V1PpYNm7WYu74CyA6UCsHgsdQdvjkJAvdja
p4782
atp4783
a(Vrobodialer
p4784
(lp4785
V1QEiFTfzpE8rffkeSn88qgcfRFPZsjdWA7
p4786
atp4787
a(Vstrongwithplow
p4788
(lp4789
V15QwSkSFLGEaENDzRHBDAhQeTzjUT36ESL
p4790
atp4791
a(Vfranckn5
p4792
(lp4793
V1NFo5qAsCm5Uc633LdivSu7QUF2kh2PSrw
p4794
aV1BA4xtowWC3HqsYWwWZcKmKLmUgSaw9diG
p4795
aV1P4nHtswu8CiZDHiPZX486m35BedGpk1gX
p4796
atp4797
a(Vpimpingken
p4798
(lp4799
V1Mq96Y6BBw9S8R9PDieseoVy32euV5xhwS
p4800
atp4801
a(Vbinghamtonbitcoin
p4802
(lp4803
V1Ross5Np5doy4ajF9iGXzgKaC2Q3Pwwxv
p4804
atp4805
a(Vabolish_karma
p4806
(lp4807
V171rC4f5qJbxbpgGiFemk8cir89zd9K8jr
p4808
atp4809
a(Vhpshout
p4810
(lp4811
V1DiZQGiZ3cfddjN3iA4AFmBBLD1uRHMYSE
p4812
atp4813
a(VKenishi99
p4814
(lp4815
V1BSmartoUnHz32AAdPKcc7cGGC3DiA4RSh
p4816
aV1BSmartoUnHz32AAdPKcc7cGGC3DiA4RSh
p4817
atp4818
a(VJaysusmaximus
p4819
(lp4820
V18JT9opXrzNGyiV8RE2kAqU1z2PPwcGgp7
p4821
aV18JT9opXrzNGyiV8RE2kAqU1z2PPwcGgp7
p4822
aV1H1XmgkD917kkEg2v2UhhdqhYj5igyGd1r
p4823
aV1H1XmgkD917kkEg2v2UhhdqhYj5igyGd1r
p4824
atp4825
a(Vmabezard
p4826
(lp4827
V1NU3fZCJm5TTkEj5HcSvmUhyXREyoeoohL
p4828
atp4829
a(Vefxco
p4830
(lp4831
V15QYXLcs3dkYrTT1fvkA4cx1dLuZ3P7cTL
p4832
aV19BPfE7Kkj1faepkt7xMqHbVZpfz4JRkpL
p4833
atp4834
a(VSlumber_watcher
p4835
(lp4836
V11ohjiVPjtBk3AxXYi6Hu1u1nDy46mnXY
p4837
atp4838
a(Vfoxevv
p4839
(lp4840
V1LaEZpke8tv18YrsrVbg1ZDxkwAogM7AdU
p4841
atp4842
a(Vjarodchang
p4843
(lp4844
V19SHvyPdSCGheLFpz6rXGU8U7DxYneXkV7
p4845
atp4846
a(VSykotik616
p4847
(lp4848
V1AuMjj9N4i53RA1aFLNWFJjKxe2KDnjmgj
p4849
atp4850
a(Vbitcointhailand
p4851
(lp4852
V3CNky61wvc8Do5Mmv73t1XJXgriXJVB6Qy
p4853
aV3CNky61wvc8Do5Mmv73t1XJXgriXJVB6Qy
p4854
atp4855
a(Vmshadel
p4856
(lp4857
V16oN2TiY7Eis5ZkCWkWr6Lhasb6iFBACiQ
p4858
aV1btc9HRDqhxYJcWHVdeCrMdzxg76u42at
p4859
aV1worm8T6FFwbiNwCd4ncUq1kpugnjfcoY
p4860
atp4861
a(Vcoincrazyy
p4862
(lp4863
V1QHRkPQsYpfNtDA5LHQwXSCtTYnVzN4xsU
p4864
atp4865
a(Vsolled
p4866
(lp4867
V1N8j4rju1DX3zdmChSnda9yNB9BxZZaacd
p4868
atp4869
a(Vtheinfiniteidea
p4870
(lp4871
V1N8j3WkP2R1HajzW5K3Rw66Yy2QzSmvzWD
p4872
atp4873
a(Vgulfbitcoin
p4874
(lp4875
V19Nft7skg4RdH7P43XYcCSYRzZwQiTy6PE
p4876
atp4877
a(Vsyriven
p4878
(lp4879
V1JwSSubhmg6iPtRjtyqhUYYH7bZg3Lfy1T
p4880
aV1GbceejVDAShYRRXaT2TDdWjxpqbazwphm
p4881
aV1GbceejVDAShYRRXaT2TDdWjxpqbazwphm
p4882
aV1GbceejVDAShYRRXaT2TDdWjxpqbazwphm
p4883
atp4884
a(Vcryptografreak
p4885
(lp4886
V169AiefwSX35XryRdnMd1ay7g6AzoXbkqg
p4887
atp4888
a(Vdochex
p4889
(lp4890
V1UaizTd5Wy3p7pLiEfo9yfVS7LnN8D58W
p4891
atp4892
a(Vzuji1022
p4893
(lp4894
V1MPApwwGQSiVe5TS6GuUeYuCsFj2NAkE6M
p4895
aV1MPApwwGQSiVe5TS6GuUeYuCsFj2NAkE6M
p4896
atp4897
a(ViGankAnnie
p4898
(lp4899
V1HQ4vXgbJJ7xPoPYu8zBDZUqYRSBm6KhFc
p4900
atp4901
a(Vaustynnnwa
p4902
(lp4903
V1Dhb5sSWGQ2Ag6Sj6y1q3MeyjW2BCFdDzf
p4904
atp4905
a(Vbit_moon
p4906
(lp4907
V1AB1cNzTv58KEPuwzrYF8Any8ojzRGyesj
p4908
atp4909
a(V1337jokke
p4910
(lp4911
V1SochiWwFFySPjQoi2biVftXn8NRPCSQC
p4912
atp4913
a(VflyM4STER
p4914
(lp4915
V1KpGBAwSXsNrHrh1x8G1uVXRFR9rrS4NYt
p4916
aV1KpGBAwSXsNrHrh1x8G1uVXRFR9rrS4NYt
p4917
atp4918
a(VBTCYouth
p4919
(lp4920
V12TaKzws5TUNQzCzyG8se3HJq6tkmQgijG
p4921
atp4922
a(Vsomeguy123_
p4923
(lp4924
V19pta6x1hXzV9F5hHnhMARYbRjuxF6xbbV
p4925
atp4926
a(Vhydethejekyll
p4927
(lp4928
V19pta6x1hXzV9F5hHnhMARYbRjuxF6xbbV
p4929
atp4930
a(Vardme
p4931
(lp4932
V1BonUSgFnTiRx1HstKeNd5dZEomBRrBN46
p4933
atp4934
a(Vblanket12334
p4935
(lp4936
V1dice8EMZmqKvrGE4Qc9bUFf9PX3xaYDp
p4937
atp4938
a(VJuryNightFury
p4939
(lp4940
V1Kjkmemw1RU7RyWCjHTymFCs4keiGDGHLp
p4941
atp4942
a(Vomnombitcoin
p4943
(lp4944
V1C5bjkN7raNdjBXJGKFpg1u7HLD1oF4ffo
p4945
aV19YHQ2c7YDGt6CMa9hcVAouahrjbFGBqT5
p4946
atp4947
a(Vbitcoindumpster
p4948
(lp4949
V17kZRRhScr1QB7avKfKemKE6YZRsAMbx92
p4950
aV1GemP6o5to3swX2p111wHbsxWpC356m1pm
p4951
aV1AkpVebAD6MGebyJhUh4RvzMtqJ6XRYRCf
p4952
aV1QLG71rjwBkQdLczzvX5toQEAYn1mRLcQ3
p4953
atp4954
a(Vbtcthinker
p4955
(lp4956
V1CAxfrCwuumaR7V2cRFyYcoTACx9MDs43R
p4957
atp4958
a(Vwerwiewas
p4959
(lp4960
V1QAvzy5rgcUnaEEbcug43at4B9KxqvshjN
p4961
atp4962
a(VHuobi
p4963
(lp4964
V1P6tPUYGFxNnteLsdauVAScpkeUShPvRR7
p4965
atp4966
a(Vefxco
p4967
(lp4968
V1Nywi6ZKNmpRCzG7rXrbLeTwB2nxwbgsPH
p4969
atp4970
a(Vtoshiromiballza
p4971
(lp4972
V16ozJKrZHX4UQDpw5xc9rDuHWwBeTgLTWo
p4973
atp4974
a(Vihopeicanwrite1
p4975
(lp4976
V19JtnavYHGCuAfoPdKfKYouBa3S9sW6V5G
p4977
atp4978
a(Vleegethas
p4979
(lp4980
V3J98t1WpEZ73CNmQviecrnyiWrnqRhWNLy
p4981
aV3J98t1WpEZ73CNmQviecrnyiWrnqRhWNLy
p4982
atp4983
a(VLogical007
p4984
(lp4985
V1N9k266yJ8G9fjN2ULQEcvvvu9iUa6RF3F
p4986
atp4987
a(VOpenPodBayDoorsHAL
p4988
(lp4989
V13Jzq3jrDKdJ5wvSz73BMuBc3mFAv1RMDd
p4990
atp4991
a(Vchakonn
p4992
(lp4993
V13CG3YVJW5FPty3bGXjVD7KV82gqHGAjbu
p4994
atp4995
a(Vgooxxed
p4996
(lp4997
V1axXYfetnxsx3Rii5xaJJHVvJzyRtpaRS
p4998
aV1MNvUB47mq1E85Cu8dJJyqKXT8nmtsDtQk
p4999
aV19jyauVSrCCtUMVYzKRQUSFM7FZpqaqCoM
p5000
aV1P3HQQPzNKZ6pA8MbURD7i4iMKrWFNc4NW
p5001
atp5002
a(VNathan2055
p5003
(lp5004
V14bQksYCtCtxZs6phmXHrFLVWJ9WpruXa2
p5005
atp5006
a(VAekorOne
p5007
(lp5008
V1HLwAULgrRuS3hMrjM3a8Z7ewpcePr7HDz
p5009
atp5010
a(Varnthorsnaer
p5011
(lp5012
V3M4rgKU2XCF4NJYoZquiSqni9wWUHLyved
p5013
atp5014
a(VZelgada
p5015
(lp5016
V1M6ApG76xpuFoN4C42EBqUSkGSE1jQxWa
p5017
atp5018
a(VD_H_
p5019
(lp5020
V1EyosiaYh9gVEP7VKPTyrFGSSoS8QDSsbb
p5021
atp5022
a(Vbitcointhailand
p5023
(lp5024
V3CNky61wvc8Do5Mmv73t1XJXgriXJVB6Qy
p5025
aV3CNky61wvc8Do5Mmv73t1XJXgriXJVB6Qy
p5026
atp5027
a(Vjmiehau
p5028
(lp5029
V36PrZ1KHYMpqSyAQXSG8VwbUiq2EogxLo2
p5030
aV36PrZ1KHYMpqSyAQXSG8VwbUiq2EogxLo2
p5031
atp5032
a(VprofBS
p5033
(lp5034
V1FWRkwMbr7DT6HHtmposmZjxgnqpAXNHMb
p5035
aV12ui22xrbid86SMM1jrjxZYp7Add4QZLJv
p5036
atp5037
a(Vta94844
p5038
(lp5039
V1PUMw9bxhZ3Nz14EqFWrdoRBRdoWKoeJ2G
p5040
atp5041
a(Vheniferlopez
p5042
(lp5043
V1BMNNc9zArWeLg2WXfQZPr4y8h2YTzKRLM
p5044
atp5045
a(VbitcoinsSG
p5046
(lp5047
V1CounterpartyXXXXXXXXXXXXXXXUWLpVr
p5048
atp5049
a(Vpietrod21
p5050
(lp5051
V36PrZ1KHYMpqSyAQXSG8VwbUiq2EogxLo2
p5052
atp5053
a(Vbeardsarentpunk
p5054
(lp5055
V1ASKDM9ASTcGMJ2qH8PJZRwc7em6GuZhKz
p5056
aV1ASKDM9ASTcGMJ2qH8PJZRwc7em6GuZhKz
p5057
atp5058
a(VNicolasDorier
p5059
(lp5060
V15sYbVpRh6dyWycZMwPdxJWD4xbfxReeHe
p5061
atp5062
a(Vberryfarmer
p5063
(lp5064
V179ZmEVubu6xqozYkYWxsm9gWAzWjiFQhh
p5065
aV1BcWTvLHR36jYa4pyZtpMHpcGr23p9cexu
p5066
atp5067
a(Vmagician11
p5068
(lp5069
V1Agb153xWsbqS9vt8gP4vBFKHkAchLMdSX
p5070
atp5071
a(VRickyBustballer
p5072
(lp5073
V1GJMe9zFvqTNCarCaX12nD2SzxN6VcNR3E
p5074
atp5075
a(Vthrowaway_moon
p5076
(lp5077
V1JustLostSomeFuckingMoney221fXDRc
p5078
atp5079
a(Vcastiego
p5080
(lp5081
V13ZB9A57QQrKZY18M7VTB5DjREcJGdn5F2
p5082
atp5083
a(VJachoshi
p5084
(lp5085
V1J19TLLqu8DH2cv3ze7g1xZNwyyXWyGLKc
p5086
atp5087
a(VBlockchainIO
p5088
(lp5089
V1LsUzeCVhMuCwrkrrsun8tUuQ1GL3CCuCX
p5090
atp5091
a(VRenegadeMinds
p5092
(lp5093
V1LPYqc4z8aNQ7paeXiD4mbxrVYUpsJwVMv
p5094
aV1LPYqc4z8aNQ7paeXiD4mbxrVYUpsJwVMv
p5095
atp5096
a(Vrastanikoten
p5097
(lp5098
V1LwiuPLGQkQLw5N2ikcdZEThDBNx3Ej6ea
p5099
aV1LwiuPLGQkQLw5N2ikcdZEThDBNx3Ej6ea
p5100
aV1LwiuPLGQkQLw5N2ikcdZEThDBNx3Ej6ea
p5101
aV1LwiuPLGQkQLw5N2ikcdZEThDBNx3Ej6ea
p5102
atp5103
a(Varruah
p5104
(lp5105
V16hYnvtudEsiFHywaBXAsUo5MDb99GfaDx
p5106
atp5107
a(Vcoinacademe
p5108
(lp5109
V13SY2uvxCYrfvjXkd8NYMHcypXXt7AgmQV
p5110
atp5111
a(Vhellbent3
p5112
(lp5113
V1JA7PPpnjr9mH1W6hs6jfZRuKXKyzSu9zw
p5114
aV13Tsgy18gocD5fkPXpN6rxgxDS6sTDXpCj
p5115
atp5116
a(VN00bThr0waway
p5117
(lp5118
V1F1jPcREssMiu4xHUdsZJPtAuH3giyuzz9
p5119
atp5120
a(Vseafarer124
p5121
(lp5122
V1PZ5ebvdt43dvRRgRNgBhsq2PwAKN4X6W
p5123
atp5124
a(ViMIFeZzx
p5125
(lp5126
V191A4CdZccQNn6qyim9LedGtNKiMnFvTNV
p5127
atp5128
a(Vjeff2380
p5129
(lp5130
V1DiZCYmuxPuWhZGfWaCpvKcvk4sGKKQWVJ
p5131
aV1JSFDZ2EwXUfxRMEjRTiKuzwMqzqPHNePX
p5132
aV18SSR12ewbqpTViGexvFTAd4qvdxx1iQYF
p5133
atp5134
a(VCryptoBudha
p5135
(lp5136
V16xCTRdQ4E6cbYHz49b8obtQCKytsKuiAj
p5137
atp5138
a(VBearaidz
p5139
(lp5140
V1PGDfU39ccgS8czEcCUkeGXQLHTDPq3AM7
p5141
atp5142
a(Vmarka-tor
p5143
(lp5144
V1237gpAqQDTXabR6E8fkRokrbvg6hmgutU
p5145
atp5146
a(VBeatnotiks
p5147
(lp5148
V1CBshmKnY1yenLWphAURWhU2AgcByPguXd
p5149
atp5150
a(Vkernowgringo
p5151
(lp5152
V1FF3V37P5Qo4GKQ6ezFEg22HP9hx6YLTXh
p5153
atp5154
a(VWeeManFoo
p5155
(lp5156
V1EYBJSwcGjohim9kEgbeDbZ6YrL7v5AQWA
p5157
atp5158
a(Vjoae1975
p5159
(lp5160
V19jcvAMdZvFJcrDzzvox6pjQK9fHSqfhMw
p5161
aV1EefT2guxUqkc8T8bvwV66771zTJzhsKyQ
p5162
aV1CwUog8nftdpC6RXygFcwzTKEATDCE4b9T
p5163
aV19jcvAMdZvFJcrDzzvox6pjQK9fHSqfhMw
p5164
atp5165
a(VSimpy12
p5166
(lp5167
V19N7WXZafPrhLG22gUdh7JtefWnD2N3xxQ
p5168
atp5169
a(Vone-to-one
p5170
(lp5171
V1LK2ePu5UAitdWyn3yQbcZS71YGGnFn8bn
p5172
atp5173
a(VRSky215
p5174
(lp5175
V1Kj1pvphmvFTBNTB3WJC7ptr5ZH3WTec8P
p5176
atp5177
a(Vanddrade
p5178
(lp5179
V1A1zP1eP5QGefi2DMPTfTL5SLmv7DivfNa
p5180
atp5181
a(VAaronPaul
p5182
(lp5183
V1GeryiTAd4juRHyS5UzKtSMWDSCqD2zdNS
p5184
atp5185
a(Vjerancampy22
p5186
(lp5187
V1DDWEQM11uMUKiqpGEWvBT2at3CjCw3Vra
p5188
atp5189
a(Vumami2
p5190
(lp5191
V1B5uDm3FUnEpaDWqAMuP6xSZEogNuzPw6x
p5192
atp5193
a(Vpietrod21
p5194
(lp5195
V36PrZ1KHYMpqSyAQXSG8VwbUiq2EogxLo2
p5196
aV1KHfLixa2idRnZXMUfEisBati1vpywaH6E
p5197
aV132aBrspLgL54cm9eQfGNFLGqXwBRQrugc
p5198
atp5199
a(Vjratcliff63367
p5200
(lp5201
V15coobWGLz5rTPPLwMqDrC848g5rSqgXX1
p5202
aV1CgrbzKje66Pcz1egaAnhr7qEGfdk9atS2
p5203
aV1KiCeqdXxzTYeq1dDUi6B1265cqFwsihzm
p5204
aV14pDPbeBCCn4CoNKc7YZJnJSWnqfoxf1XF
p5205
atp5206
a(Vtheochino
p5207
(lp5208
V158d4b2045ff8dfbdf5d211a775b20c1
p5209
atp5210
a(Vgenuin3
p5211
(lp5212
V19tqqo5p5xMuTj1hwLgYr4AVG9x2bwzgn1
p5213
aV19tqqo5p5xMuTj1hwLgYr4AVG9x2bwzgn1
p5214
atp5215
a(Vvlad243
p5216
(lp5217
V1PKvrFnWNzR6cpoiU65YMdJadcpaS4Pgze
p5218
aV1CFWW6xj3UY1ufRfS2BWkxYvqwXawgz2nM
p5219
atp5220
a(VCaptain_Caregiver
p5221
(lp5222
V14Cxa1MSCccGniBdREKH951ZjaacnLa7t9
p5223
atp5224
a(VGloomfrost
p5225
(lp5226
V36PrZ1KHYMpqSyAQXSG8VwbUiq2EogxLo2
p5227
atp5228
a(Vmagwenya
p5229
(lp5230
V1Hkd3sv3MT9bjVpj4GPWf1NgvMHVGHXAKZ
p5231
aV1Hkd3sv3MT9bjVpj4GPWf1NgvMHVGHXAKZ
p5232
atp5233
a(Vredshiftquasars
p5234
(lp5235
V1HfdC6zfGMQ5Jk5y5gWzyDgNJePF8cchLd
p5236
atp5237
a(VBitBear7
p5238
(lp5239
V17rmgkuQzGb29Xai32j55M5PaVqfXQ5epw
p5240
aV17rmgkuQzGb29Xai32j55M5PaVqfXQ5epw
p5241
aV17rmgkuQzGb29Xai32j55M5PaVqfXQ5epw
p5242
atp5243
a(Vpietrod21
p5244
(lp5245
V36PrZ1KHYMpqSyAQXSG8VwbUiq2EogxLo2
p5246
atp5247
a(Vbitcue
p5248
(lp5249
V1GYMK9s49NJGG3NtLr3ni5tfppWhLeSgyZ
p5250
atp5251
a(VTry_AgainNY
p5252
(lp5253
V1BitcoinEaterAddressDontSendf59kuE
p5254
atp5255
a(Vwallyamos
p5256
(lp5257
V1M2n9WHBX6GfLkwWSy8n1bWqLQub1DroCk
p5258
atp5259
a(Vrafaelnorman
p5260
(lp5261
V12pf3UrBqGMyjGPEsyso4ykune5WxRF37N
p5262
aV1733rLsmW4E6bpFF3GSRRvzfsjq4ixL14d
p5263
atp5264
a(VAahzmundus
p5265
(lp5266
V1MSvopRzyhRJYkGjcy6casmyTzbm62QqXV
p5267
atp5268
a(Vpatrickjquinn
p5269
(lp5270
V1N5AokxMBXFQNNWa7FE56YhfiKx9VvYk7B
p5271
atp5272
a(VMrjalag
p5273
(lp5274
V16aYwMmPsEx9Cp38kXro41acGP4MsuT7cW
p5275
atp5276
a(Vrourion
p5277
(lp5278
V1HKQLiomzLWswBzaA452cbViSu1nfWp1Hv
p5279
atp5280
a(Vfabe
p5281
(lp5282
V19NCz5GnX3BDsrC8rLgdqbYzuL5AcSRwk5
p5283
aV19NCz5GnX3BDsrC8rLgdqbYzuL5AcSRwk5
p5284
atp5285
a(Vrobodialer
p5286
(lp5287
V1Jm5M7FJLuDnHH9JKTjRaF5v9LD3bzHChn
p5288
aV1Jm5M7FJLuDnHH9JKTjRaF5v9LD3bzHChn
p5289
atp5290
a(Vtimmy197922222
p5291
(lp5292
V1DHKv9GLzapvFjmQfUyf9qvZEshyRCTkfY
p5293
atp5294
a(VAEonCIpher
p5295
(lp5296
V1eLc2Zy0ZTxucr2VP7ikhMEwNju
p5297
atp5298
a(Vfuckotheclown2
p5299
(lp5300
V1Kikyh19sjTy6Q1QepDkKzvhspMYMHY7BP
p5301
atp5302
a(Vhelix09
p5303
(lp5304
V12BRZ4sjR9L9SsUjVGenYhBaKP8dhkU1rK
p5305
atp5306
a(Vsharedsend
p5307
(lp5308
V16wH51tpqbLeescVW2q4KzsGoMS3LGmiWv
p5309
atp5310
a(Vcoincrunchcom
p5311
(lp5312
V18GYK9c3EV5KXmqNyeiVpaTY4ZNEkYqSdc
p5313
atp5314
a(VPappyHD
p5315
(lp5316
V1FUFqwiqh2WHtVqxtF71D5dwaKwQahF45p
p5317
atp5318
a(VDoUHearThePeopleSing
p5319
(lp5320
V1PCkVX19uGm2QK1vhcXy9uM4y2jwR4dgbF
p5321
atp5322
a(Vnaomibrockwell
p5323
(lp5324
V1HA9xSQWdXrusDK6a4Enprsy2ZTgzgNycG
p5325
atp5326
a(Vcavirtex_com
p5327
(lp5328
V1P21pR9AYtBGFh4JwX2GdpUn7EzCvUtVUT
p5329
aV1P21pR9AYtBGFh4JwX2GdpUn7EzCvUtVUT
p5330
atp5331
a(VMegaBitLotto
p5332
(lp5333
V16nMa8sqBqeYRsnyxoZRWu8LHQGYNGRzBB
p5334
aV1FYwc2gFK3sArPJpeVtUPGyNJP23aa1Ce7
p5335
aV1CLt2ENxy5YxrEdUGhwc9pBQLKYYDQVVXV
p5336
atp5337
a(Vphrydde
p5338
(lp5339
V1SochiWwFFySPjQoi2biVftXn8NRPCSQC
p5340
atp5341
a(Vanon1235111
p5342
(lp5343
V1Enjoy1C4bYBr3tN4sMKxvvJDqG8NkdR4Z
p5344
atp5345
a(Vvartotojas
p5346
(lp5347
V17gH1u6VJwhVD9cWR59jfeinLMzag2GZ43
p5348
atp5349
a(VDubedge
p5350
(lp5351
V1E5h2Mms8y5qY14YBg1KNkqdhZ3ByYo9W6
p5352
aV1E5h2Mms8y5qY14YBg1KNkqdhZ3ByYo9W6
p5353
atp5354
a(Vwtfbitcoinwtf
p5355
(lp5356
V13MZpbz5M7ckigkohDNNUJJen7bW9MWKfg
p5357
atp5358
a(V11251442132
p5359
(lp5360
V3J98t1WpEZ73CNmQviecrnyiWrnqRhWNLy
p5361
atp5362
a(Vgtir123
p5363
(lp5364
V162AnyfWMAsbHicM56uBfgxJ8Z95YBuSiH
p5365
atp5366
a(Vhugoderoper
p5367
(lp5368
V1EfYntWThhPJSyGdDT9sUSXaGWiiLdDWx7
p5369
atp5370
a(Vchapulinbtc
p5371
(lp5372
V17TFyL1RMWZXTY5q1bMjmnkVnDpFiNb12M
p5373
aV17TFyL1RMWZXTY5q1bMjmnkVnDpFiNb12M
p5374
atp5375
a(VXxapexx
p5376
(lp5377
V1DkRWKXpfQwm5b1pGL2QdpPdrUdKSdzbnG
p5378
atp5379
a(Vsuchshibesocoin
p5380
(lp5381
V16modtb1c9UChJtAZr6m4hWk47AVsoSRZD
p5382
atp5383
a(Vmvg210
p5384
(lp5385
V19oasZ9kwzAbecmsfHBwhXHRrpfrmmY2a9
p5386
aV19oasZ9kwzAbecmsfHBwhXHRrpfrmmY2a9
p5387
atp5388
a(Vd2keen
p5389
(lp5390
V1MfNvWbRkwAsLLZ3Vf4MzsWtNbgx5NXEVx
p5391
atp5392
a(Vburntsatoshi
p5393
(lp5394
V1Ez69SnzzmePmZX3WpEzMKTrcBF2gpNQ55
p5395
atp5396
a(VKZM279
p5397
(lp5398
V1MzakiRDem5MCocbcP7DgfcVGZNZe2KqaC
p5399
atp5400
a(Vthepatrickmartinez
p5401
(lp5402
V1LFJsNw5tcrRcAqScZ3vQ3AG1JwpuSKSFS
p5403
aV1NdknR8W8tBSsHa91wzvtRo9wyz9NbkZYg
p5404
aV1LFJsNw5tcrRcAqScZ3vQ3AG1JwpuSKSFS
p5405
atp5406
a(VHeroCC
p5407
(lp5408
V1HeroCCotNLtJzpEiWGrRkaFSFDBZkF1jG
p5409
atp5410
a(VTheCoinCrew
p5411
(lp5412
V1K3qqXcmScvJ34N6vkex1fgwA8UWNuJZJy
p5413
atp5414
a(Vmichwill
p5415
(lp5416
V3KyXFsnK3acpLQgCoQ3hFKJUWvxNp8Zw8j
p5417
atp5418
a(VFilmhuiscavia
p5419
(lp5420
V1NdJmNHXiN2WdpuaowSc57WFkuHi1yjy1J
p5421
atp5422
a(Vbur1x
p5423
(lp5424
V1AD8giCqAWK3q6KzatQkDz7k62NipNo7qm
p5425
atp5426
a(Vjrkirby
p5427
(lp5428
V1AD8giCqAWK3q6KzatQkDz7k62NipNo7qm
p5429
atp5430
a(Vthemattt
p5431
(lp5432
V1AD8giCqAWK3q6KzatQkDz7k62NipNo7qm
p5433
atp5434
a(VRedditTooAddictive
p5435
(lp5436
V1AD8giCqAWK3q6KzatQkDz7k62NipNo7qm
p5437
atp5438
a(Vyeh-nah-yeh
p5439
(lp5440
V1AD8giCqAWK3q6KzatQkDz7k62NipNo7qm
p5441
atp5442
a(Vtashtrac
p5443
(lp5444
V1AD8giCqAWK3q6KzatQkDz7k62NipNo7qm
p5445
atp5446
a(Vbitpotluck
p5447
(lp5448
V1AD8giCqAWK3q6KzatQkDz7k62NipNo7qm
p5449
aV1AD8giCqAWK3q6KzatQkDz7k62NipNo7qm
p5450
atp5451
a(VSenor_Ding-Dong
p5452
(lp5453
V1Dorian4RoXcnBv9hnQ4Y2C1an6NJ4UrjX
p5454
aV1Dorian4RoXcnBv9hnQ4Y2C1an6NJ4UrjX
p5455
atp5456
a(Vcasascius_question
p5457
(lp5458
V1CseAFPvM49dsMmBBmyDuiyneRdv7TeQez
p5459
atp5460
a(Vdiglig
p5461
(lp5462
V1AD8giCqAWK3q6KzatQkDz7k62NipNo7qm
p5463
atp5464
a(Vprelsidente
p5465
(lp5466
V1AD8giCqAWK3q6KzatQkDz7k62NipNo7qm
p5467
atp5468
a(Vsolomania9
p5469
(lp5470
V1HUBHMij46Hae75JPdWjeZ5Q7KaL7EFRSD
p5471
atp5472
a(VMuziekacademieDH
p5473
(lp5474
V1FK6ZQGj8BZJjZiUPChBnwe462VJdTg7sX
p5475
aV1FK6ZQGj8BZJjZiUPChBnwe462VJdTg7sX
p5476
atp5477
a(Vsolomania9
p5478
(lp5479
V12UAYukXKJNW3ALQMhuWU2LvxZJnhLDNuN
p5480
atp5481
a(VLostAllOfMyBtc
p5482
(lp5483
V1cvvnsUpaAvatvfDKgixRYvSdGLDfA4CA
p5484
aV18rmY7jHdk4mrdMN46ERbFXm8YvM6ZDFo3
p5485
atp5486
a(Vsolomania9
p5487
(lp5488
V16xgGGyBTmWNKWWv9TZHtAvo6QA8digqUB
p5489
aV16xgGGyBTmWNKWWv9TZHtAvo6QA8digqUB
p5490
atp5491
a(VNourishingLiberty
p5492
(lp5493
V13teHkGZ21d5Tf7aRrMasFzyqtb9sSDftq
p5494
aV1AiDNjM8zT9Ku9EQKMqEhYrmvAU2RpdeuQ
p5495
atp5496
a(Vmswells
p5497
(lp5498
V14Je4sUFm18Sj5rbkD3CoF5sHUc9oqsgzc
p5499
atp5500
a(VAdog353
p5501
(lp5502
V1ExR8rKj7CeZ9xQjrfgUjXNZqUxbGXDCbp
p5503
atp5504
a(VZanderBit
p5505
(lp5506
V12UFc4oJ3sAVo5RmDWnFjNuzod4vdeRAuH
p5507
aV1NRMGqPYXwPoAGHiPAMzBgkqCcmgms3hjH
p5508
atp5509
a(Vxorq
p5510
(lp5511
V3AzGShcnr5Maf21bLS9pAsWFK2Ez19Dr6V
p5512
atp5513
a(Vjdfellow
p5514
(lp5515
V14Predactedredactedredactedredacte
p5516
atp5517
a(VLostcoins
p5518
(lp5519
V12gEgguL2ciHqerypstKM5WYCMcxRKsnQ4
p5520
atp5521
a(Vcisengineer
p5522
(lp5523
V12hLXoe834MqCdjDB2gyw8ExMha3qtvK5G
p5524
aV12hLXoe834MqCdjDB2gyw8ExMha3qtvK5G
p5525
atp5526
a(VRawlsdeep
p5527
(lp5528
V13c5pbJnSJrc3AkyvG7kgNV9vvHqrT8dLa
p5529
atp5530
a(VJos239
p5531
(lp5532
V1E4B3HV5EhLyoJkYio9HRu8gmBvj6t4kH7
p5533
aV1E4B3HV5EhLyoJkYio9HRu8gmBvj6t4kH7
p5534
aV1E4B3HV5EhLyoJkYio9HRu8gmBvj6t4kH7
p5535
aV1E4B3HV5EhLyoJkYio9HRu8gmBvj6t4kH7
p5536
atp5537
a(VMrCheek
p5538
(lp5539
V12GZL7shupvmHapCmhw81GDa5GmaTqaZdk
p5540
atp5541
a(VMuziekacademieDH
p5542
(lp5543
V1FK6ZQGj8BZJjZiUPChBnwe462VJdTg7sX
p5544
aV1FK6ZQGj8BZJjZiUPChBnwe462VJdTg7sX
p5545
atp5546
a(Vrobunkle
p5547
(lp5548
V1PuJV3Gxv8mBt6WerQpHM3Lr3yNAL3den8
p5549
atp5550
a(VHkbtc88
p5551
(lp5552
V1AbXrHmWUMH9gSuEH818sUucC4VCDZKayM
p5553
atp5554
a(Vlong-lostfriend
p5555
(lp5556
V1MpZtegPR3UW4Px47rwQp21489VSzjMhBz
p5557
atp5558
a(VrockingBit
p5559
(lp5560
V1AF4og9Epgw7Q7hVzNeDf8ZAvzRhJ8pQG
p5561
aV1H5NvB7W5hGhf3aPACDZPam7vmy3bYuTDa
p5562
aV1BX5YoLwvqzvVwSrdD4dC32vbouHQn2tuF
p5563
aV1BwZeHJo7b7M2op7VDfYnsmcpXsUYEcVHm
p5564
aV1A73ExsM2doRwTLp82rv5U36QHbBFmHD1X
p5565
atp5566
a(Vayybay
p5567
(lp5568
V1EJcTLZNfy9HALtgovGuUJbLi1ERmoo6uZ
p5569
atp5570
a(Vsvenfaw
p5571
(lp5572
V1GHszRr8NoTrDYmJLBd6QTnECDrwAprUYs
p5573
atp5574
a(Vrezzme
p5575
(lp5576
V1FvKysXWC7AiN24N9T4pkgkz7APvXq75ch
p5577
atp5578
a(Vpunkrampant
p5579
(lp5580
V1HtABwGTBvWwHG1VcttQhko314aaaaaWoV
p5581
atp5582
a(VMushy2000
p5583
(lp5584
V14epauZgrbniQ8E1gyh1DrcT8isaG173ui
p5585
aV14PqXrCphtMpASwpeFVusH3VtMv6vHX4sD
p5586
atp5587
a(VSent2
p5588
(lp5589
V1JgxKzReXHwPpLHqzcqx5vPwR9y8iz9psc
p5590
atp5591
a(VWikohika
p5592
(lp5593
V14nhCKoPSjW2zGLTZtb2voyWqzwh54aUH1
p5594
atp5595
a(Vmrpiggles12
p5596
(lp5597
V17gH1u6VJwhVD9cWR59jfeinLMzag2GZ43
p5598
atp5599
a(Vsvenfaw
p5600
(lp5601
V1BsPfBGctEngADvYVQ9jrczhimU2VABBwC
p5602
atp5603
a(VSatoshiDaddy
p5604
(lp5605
V1FKP7Wpnq3hxsHGYrAYfxuVwjFWGNfuftx
p5606
aV1MsMAGi9wYZXCuhfpnU8D58xJ51qLnNfSH
p5607
aV13iDqjRawGWNiGFJfm9NhioqFRFgdg4sFK
p5608
aV1HDtMgnCrE4SqfEQYkc7f5wQbSUecFiSVK
p5609
aV1EV1eoY6cLYCBsmD5JLhSMp2MACrLCJJ7B
p5610
aV1CHj23vaq2e5ysQTjXSTV2j7AewaRLZKpc
p5611
aV1LSx2uMSdm2iyaCnEqyK3wrKWFhqL3Rxnd
p5612
aV1FJ1JEpc7raqqLtdjbo8XDtDCwfenrSWD9
p5613
aV1LdU1bRUS3rmaHR8USVtsSzURtxgUAQ1CZ
p5614
aV19gJswQU7mJ5AtANaJxvNAT51ejjM8zwCc
p5615
aV1LdU1bRUS3rmaHR8USVtsSzURtxgUAQ1CZ
p5616
aV1FJ1JEpc7raqqLtdjbo8XDtDCwfenrSWD9
p5617
aV1LdU1bRUS3rmaHR8USVtsSzURtxgUAQ1CZ
p5618
aV1FJ1JEpc7raqqLtdjbo8XDtDCwfenrSWD9
p5619
aV1LSx2uMSdm2iyaCnEqyK3wrKWFhqL3Rxnd
p5620
aV12F4SbcnqgtxQgnYgUDTfZRj7Kq5f5CJuH
p5621
aV1Kt9XihqeTmKXde5aiV1tDvGoc6CYyMZ9s
p5622
aV12F4SbcnqgtxQgnYgUDTfZRj7Kq5f5CJuH
p5623
aV1FJ1JEpc7raqqLtdjbo8XDtDCwfenrSWD9
p5624
aV1LdU1bRUS3rmaHR8USVtsSzURtxgUAQ1CZ
p5625
aV19gJswQU7mJ5AtANaJxvNAT51ejjM8zwCc
p5626
aV1jGqQPdZx4cLyYJ5XHJ4zDyno8SNYHLMN
p5627
aV15HmxLEnrhNPn6ae5ocE1Rnkj3SYgm4dv1
p5628
atp5629
a(VLostcoins
p5630
(lp5631
V12gEgguL2ciHqerypstKM5WYCMcxRKsnQ4
p5632
atp5633
a(VSatoshiDaddy
p5634
(lp5635
V1FKP7Wpnq3hxsHGYrAYfxuVwjFWGNfuftx
p5636
aV1MsMAGi9wYZXCuhfpnU8D58xJ51qLnNfSH
p5637
aV13iDqjRawGWNiGFJfm9NhioqFRFgdg4sFK
p5638
aV1HDtMgnCrE4SqfEQYkc7f5wQbSUecFiSVK
p5639
atp5640
a(VHypnoticGuy
p5641
(lp5642
V1G6vK3px4fPTerKKz6sGsWzR1eqcWi4xaD
p5643
atp5644
a(VgoodbyeBTC
p5645
(lp5646
V1EJcTLZNfy9HALtgovGuUJbLi1ERmoo6uZ
p5647
atp5648
a(Vazzuron
p5649
(lp5650
V1binvXz8NjD2XoXt7WN2yidZPcgTZs6Nx
p5651
atp5652
a(Vshahzadsarwar
p5653
(lp5654
V1HzpDixh73bJrY7HirN5Qyhfk6uVnGYZAz
p5655
atp5656
a(Vdstdtzs
p5657
(lp5658
V137BEotVCsfbx66i3bakbkavyEvz9dfp28
p5659
atp5660
a(Vbullshbit
p5661
(lp5662
V1MA7CKbWMyKdPkmsbnwmfeLh1hYy5A3gy8
p5663
aV12PcHjajFJmDqz28yv4PEvBF4aJiFMuTFD
p5664
aV12e8322A9YqPbGBzFU6zXqn7KuBEHrpAAv
p5665
aV1MA7CKbWMyKdPkmsbnwmfeLh1hYy5A3gy8
p5666
aV199kVcHrLdouz9k9iW3jh1kpL7j9nLg7pn
p5667
aV199kVcHrLdouz9k9iW3jh1kpL7j9nLg7pn
p5668
aV1CjPR7Z5ZSyWk6WtXvSFgkptmpoi4UM9BC
p5669
atp5670
a(Vrachyandco
p5671
(lp5672
V1MvyWD61Xp9t7cWGKV1rv8gtkdBpAkQjAK
p5673
atp5674
a(VTheDJFC
p5675
(lp5676
V113MmkyjjH6zS9VMvbwrhBNoMe6upzdvNC
p5677
aV113MmkyjjH6zS9VMvbwrhBNoMe6upzdvNC
p5678
atp5679
a(Vsavvamadar
p5680
(lp5681
V18RcZgg7XeY1JhaSSPWixcTSjepBQ4rXo8
p5682
atp5683
a(Vfran2k
p5684
(lp5685
V1VELAQ98pduas8NWjGSwKourisCvXoDxs
p5686
aV1VELAQ98pduas8NWjGSwKourisCvXoDxs
p5687
atp5688
a(Vheldertb
p5689
(lp5690
V19jeZSDYaqCirQD5KB25BufUD85wvzaVSu
p5691
atp5692
a(Vrichbnyc
p5693
(lp5694
V15tasZDEpWWrfdFWW11y6ZeTYDb2Qesd8F
p5695
atp5696
a(VStoryBit
p5697
(lp5698
V1DqnRPCFmft2nV9FFkB1ETNANZMbHF6KDw
p5699
atp5700
a(VBytas
p5701
(lp5702
V1GSwLChBAaw9SmctntVzKTdkq4PMNxL8qt
p5703
atp5704
a(VMabocoin
p5705
(lp5706
V1N9Kr5tkbFDodop7YA1X2c9yT9g6Vxp44q
p5707
atp5708
a(Vknuckles609
p5709
(lp5710
V12ZkMqSmAcBiRVxnPEmFRsHWkewJdegvio
p5711
atp5712
a(VYouAreWhatYouEet
p5713
(lp5714
V1BHMUeKkMEScaEzUHe2CVf2RkFwW2xsDrt
p5715
atp5716
a(VMarotta117
p5717
(lp5718
V1Lr7KmCnam5X1to7vquyCTkA4QeThcM7ax
p5719
atp5720
a(VBuckbeak
p5721
(lp5722
V1Buck1n542nooCjcegAL1gYVYEbE3jW7gL
p5723
atp5724
a(Vbitbutter
p5725
(lp5726
V1AbAgKrzbdZZ3Ty8uEvf4Q1pEGJYQvEHjB
p5727
aV1AbAgKrzbdZZ3Ty8uEvf4Q1pEGJYQvEHjB
p5728
aV1KWH7bi8Tovmy4Pg5cQQiHa3SLda2iMECc
p5729
atp5730
a(VBitcoinCryptoNews
p5731
(lp5732
V1PTHbH7zdhSx2HLmjHzYEktAXUMtJi15Xq
p5733
atp5734
a(Vtoliro
p5735
(lp5736
V1N5h1CZsM4rKbuQGHuP62EuPzCk7AaCpBs
p5737
atp5738
a(Velpinyeknom
p5739
(lp5740
V12y1y9Pm7FXjqtJMpfyWuymHwc8Vsa6VNP
p5741
atp5742
a(VMdiggy
p5743
(lp5744
V18ew17BuLhdgkNM6u9LBXnvJm6DKrGYpHg
p5745
atp5746
a(Vtimrpeterson
p5747
(lp5748
V168HLEEA174h35aFwUJ93DZ6R3s8uK2EjY
p5749
atp5750
a(Vbox1820
p5751
(lp5752
V1AQ9td38YTi21Joqmr46DuSpqhNhWCc9Kp
p5753
atp5754
a(Vodotan
p5755
(lp5756
V12thanx3dK8z4ztDdFEPx1FbvaWduPho28
p5757
aV123thanxEYFsecfU9eB4jWWrnESkCL4Y8N
p5758
atp5759
a(VGaaraBits
p5760
(lp5761
V1NwHXLKXSPzyBKNkBzUK97w4KziKGwwvqs
p5762
aV18dTdVnqDQu3NfPezV1WMLWZFz7XWmbtnv
p5763
atp5764
a(VDiagnox
p5765
(lp5766
V1G9ELGPaWgk4tvq61x4svT6QCSfNALnsMm
p5767
atp5768
a(Vturtleman21
p5769
(lp5770
V1Er5oQ35yy5p4L1EUUDE1EfLmHggYAeDZy
p5771
aV1AFXB27vgi9K4LH92DyodAsZAPGqGNGLEB
p5772
atp5773
a(Vdagila
p5774
(lp5775
V19WXcYLyzfPUKLh4oAXEgZBkyN6WT2ZTKc
p5776
atp5777
a(Vcoldmug
p5778
(lp5779
V14YChAbYNV89mfAy9CTpmjJTb7iR61fs4b
p5780
aV1D6Wu9wmU9nhmPKVTKVjrzKgizoEExvmHP
p5781
aV1HdGrLVTNTtoFEGXdreckTYw3dCkSSGzDg
p5782
aV1HM4AWnxq82vUGswA5VibqFPkC5dRhzrFG
p5783
aV1HdcRevmWKhV3RFepT8dPGVeMiZoPaVngZ
p5784
aV17eHkCRMNp4i44idCAwFkgfxQXbb42s3i6
p5785
aV1Cz8cFQ3ghiygfBRVEonHKYRgAzH1K9StS
p5786
aV13bG7eSGv51FfVGtC48U18HDuhycZU7641
p5787
aV1Lgm7KC69AUr8ZvYGvLyAAzRsSkDztwP3G
p5788
aV16KN8htACVdsiMNjrXFQRuEHLVopGbrs1Z
p5789
aV137c5PGLGBdcDqy3W5Xvw2HfnEKcSpJBXc
p5790
aV1JcyMyN1JNeqzioFyRG9bUmPPZtiqdsxvQ
p5791
aV13ix3Bb3ZE55JaX6aGsjxxJGZSkPqK2J4C
p5792
aV13mXaF9SnBS8u1TMG8nzDfDKwMuMgWqvkZ
p5793
aV1LQGFQrhQsZooevZEjN9fQ96AwZvCqSNLr
p5794
aV162KEa4aqwHNaQNiaiBCFZvZexpkMdruYr
p5795
aV143GcVgU1WNGUhyuk41QfyTjj76kGPKzUc
p5796
atp5797
a(Vronsunrise
p5798
(lp5799
V1MyqqB2Tb5wr4VNtjYkregUrnrtqfrLEM2
p5800
atp5801
a(Vsupersmashbros218
p5802
(lp5803
V1FQyxtVp7iqJgtK9odFkvV7TaB5H3s1Svr
p5804
atp5805
a(VTooSmugToFail
p5806
(lp5807
V19adjbmkXkSc7wTFE5gjBPyaHCyGzLyv2X
p5808
atp5809
a(Vworldbitcoinnetwork
p5810
(lp5811
V132wcGVmkJJzhDku16eFRNYFfnp48E1AJQ
p5812
atp5813
a(Vprof7bit
p5814
(lp5815
V1EJP1Q1JEQdWtR5PEopCRZdE1F8dgk9Wwp
p5816
aV1EJP1Q1JEQdWtR5PEopCRZdE1F8dgk9Wwp
p5817
atp5818
a(Vdevolution17
p5819
(lp5820
V155aZ5T5oFevoDfBEVoazZmfMqJghdMrsD
p5821
atp5822
a(Vjcoffland
p5823
(lp5824
V34VRyR37fPyV2qqmaYKpswvcnYDUq6GYeP
p5825
atp5826
a(Vbranmanchu
p5827
(lp5828
V1Ed675f1wiZHFwrrHq64Pi9ZBX8UBDNTeR
p5829
atp5830
a(VNedRadnad
p5831
(lp5832
V1DNjPbnkZsHCwrzBD6x9EHvGggyDs3uZHP
p5833
atp5834
a(Vajvw
p5835
(lp5836
V1Ct9CA4WjbLJd2kWjeqWHdUSuCTmWEkZx4
p5837
atp5838
a(VLuccio
p5839
(lp5840
V1E9uuCzrRysMyapsv9zN4tumGcfk1d6P3A
p5841
atp5842
a(Vatm348
p5843
(lp5844
V1Cw9q9nhLNneZsWoNrKETXW536d7Jxcz4K
p5845
atp5846
a(Viniwils
p5847
(lp5848
V1MvmBtf8ZcPkcmRBvmTBW2R3cdrwjmDu2G
p5849
atp5850
a(VCOINTALK
p5851
(lp5852
V13RXSsGscH3NMEiQru8vS4Eu5EiHbNZ84X
p5853
atp5854
a(VByatis
p5855
(lp5856
V16tCYKDYCrUCx8epeivJmYaf3BYMJVfJEP
p5857
aV16tCYKDYCrUCx8epeivJmYaf3BYMJVfJEP
p5858
atp5859
a(VJackcliu
p5860
(lp5861
V1L623K3u6gRk1MzhbWoSQcsS6GMpWEMygu
p5862
atp5863
a(Vwhitslack
p5864
(lp5865
V1JKEJakptVmPqkuhrc143qdPyQASi8QezT
p5866
aV1GLe75pDDWq7nzssjCD3QoQ8mm4QFq4yFN
p5867
atp5868
a(VPeebro
p5869
(lp5870
V1H7yVxTcHRDbL2Yip1Eg3DR7RykvBHMd9r
p5871
atp5872
a(VIanGameWoof
p5873
(lp5874
V1GtDXA4FE9aPyAf93eERASrtgxAJaVf8tc
p5875
atp5876
a(Vviper2097
p5877
(lp5878
V13VCJd71hbk3Uy2c7XYZvtkxDhphryxXRu
p5879
aV3QJmV3qfvL9SuYo34YihAf3sRCW3qSinyC
p5880
atp5881
a(VThinksgeek
p5882
(lp5883
V19ku5vGzFxweJQQQWX5uLebFmAz31mrUDV
p5884
aV19ku5vGzFxweJQQQWX5uLebFmAz31mrUDV
p5885
atp5886
a(VAnonymousRa
p5887
(lp5888
V18WXzudwWCYPZvZex6bER85iyi7qihB9yp
p5889
atp5890
a(VTanqPhil
p5891
(lp5892
V31oSGBBNrpCiENH3XMZpiP6GTC4tad4bMy
p5893
atp5894
a(VBrownie79
p5895
(lp5896
V18XcEpXyBDTApP5mZtYxr1tZ4wCS9x1WMu
p5897
atp5898
a(Vvatz
p5899
(lp5900
V12B182AoW78SjBADHKUrUCpWX47UZp7Q69
p5901
aV12B182AoW78SjBADHKUrUCpWX47UZp7Q69
p5902
atp5903
a(VZakyb53
p5904
(lp5905
V1EhRt2ozzLApLiTJT6uTDTZJ7ixFcTYVk1
p5906
atp5907
a(VCIVIL-CIVIC
p5908
(lp5909
V1C1VC1VfsY548Ba4JmM4nyZhDbXxeAS81M
p5910
atp5911
a(VAnthonyCFox
p5912
(lp5913
V12uKSZLQrBHPfJ7bXirGs87ymJhqK88QGd
p5914
atp5915
a(Vblockchainwallet
p5916
(lp5917
V1LQQkqtWWruiofuD8jkMHxD5jMdKk7Vuh6
p5918
atp5919
a(VGodfreee
p5920
(lp5921
V1Wishyy59M8zE8EfdjjpDjhsC3XKR6zRk
p5922
atp5923
a(Vbardiharborow
p5924
(lp5925
V1eca5397c484fecc7049594687d36f29
p5926
atp5927
a(Vsolomania9
p5928
(lp5929
V1MKRDDQatPumXbEdb5n7azUUmDBxKDFpAb
p5930
atp5931
a(Vpalmbitcoin
p5932
(lp5933
V1Np4pRB8ox2E8ABYJk6Gv4AmCqiihBNxwj
p5934
atp5935
a(Vyoteech
p5936
(lp5937
V1KiCRoubgoav5qCA3NQ5CRyEB1NXYy5LgE
p5938
atp5939
a(Vphonixabe
p5940
(lp5941
V1EjgVQN2pokR1WfrfiGjqYaC8orjLWDrKd
p5942
aV16mLN1bvHArZGUxT5TgHjixR43sLJ6hUMR
p5943
atp5944
a(Vthe-ace
p5945
(lp5946
V110VTXsRfNazr2heFzo6N5ToR9BNSKSt
p5947
atp5948
a(VNoetrejo
p5949
(lp5950
V1JU5km42Ys9ebCHoRXPPNn1hYuFLiTayq5
p5951
atp5952
a(Vvin_dog
p5953
(lp5954
V1Bzrnw6NRjbuMuFLMm3AerMS7f86QxbSyZ
p5955
atp5956
a(Vryanmercer
p5957
(lp5958
V1M9MyyPsAak7zRjW4D96pTxDaAEpDDZLR7
p5959
atp5960
a(VMatteuzs
p5961
(lp5962
V1LKUrxKZQCu7rB9rciYyMkzbutjoMu8kaA
p5963
atp5964
a(Vpetertodd
p5965
(lp5966
V1BGbGFBhsXYq6kTyjSC9AHRe1dhe76tD6i
p5967
atp5968
a(VBonbonWallet
p5969
(lp5970
V178uaHMTJFKs4Mwb42ABsDDjcHXwEupZrb
p5971
atp5972
a(VNoremac921
p5973
(lp5974
V1KxWfREqHekNoTfD7yUGzBTLBX5k6Vrmk9
p5975
atp5976
a(Vyomofos
p5977
(lp5978
V1G5g6bCRAPSctQpZ7SkTF1Zqe2iv3nHiUz
p5979
aV19enjgKCNHhtAYjRcGHUBjYgMTzj3Yggp3
p5980
aV1G5g6bCRAPSctQpZ7SkTF1Zqe2iv3nHiUz
p5981
aV1G5g6bCRAPSctQpZ7SkTF1Zqe2iv3nHiUz
p5982
atp5983
a(VDmayyy
p5984
(lp5985
V1Q6BtrwNRTpheKqr3vXgGE9qG9YH5ChBYE
p5986
atp5987
a(Vtherumking
p5988
(lp5989
V1LbSLsHCUxKgNeErgHxmT3JxUxpNLARzZS
p5990
aV1BRFMLFdH9s53aaQW9sKtMYNHF3stoky5W
p5991
atp5992
a(V51btc
p5993
(lp5994
V397232819ff9a47a7b7e80a40613cfe1
p5995
aV1NDnnWCUu926z4wxA3sNBGYWNQD3mKyes8
p5996
atp5997
a(VBLEAOURGH
p5998
(lp5999
V39wbuEjp3mfFAB3bTjmkFB69XAmKYRMq5i
p6000
atp6001
a(Vglobalistas
p6002
(lp6003
V1Drt3c8pSdrkyjuBiwVcSSixZwQtMZ3Tew
p6004
atp6005
a(VTlwofford
p6006
(lp6007
V1Gmewgq7dzseSK2Fxvy6ykkVnu7Ru3zmDh
p6008
atp6009
a(VBashCo
p6010
(lp6011
V18r2nq7jzNJWEemkybuwNEAEHDN4saCvgh
p6012
atp6013
a(Vdon4of4
p6014
(lp6015
V1PATzysiurrrpJjaQZWBnhWdyZdkhHXugn
p6016
aV1H7tqW1Q4MCChxgixJGmjJ9yacRnbZJRP1
p6017
atp6018
a(Vallthefoxes
p6019
(lp6020
V1Foxes9ci3c5gziaM487w2W58yh2pGZmPW
p6021
atp6022
a(Vhiver
p6023
(lp6024
V1GtZQXxEJupqakwPQPFgGHZY5qwWSCxxeC
p6025
aV1GtZQXxEJupqakwPQPFgGHZY5qwWSCxxeC
p6026
atp6027
a(Vbebooba11
p6028
(lp6029
V1QCqvw923Tv8zSgnZRSQfaP1PNFKF8VjJs
p6030
atp6031
a(Vlolhat
p6032
(lp6033
V1A1zP1eP5QGefi2DMPTfTL5SLmv7DivfNa
p6034
atp6035
a(Vsolomania9
p6036
(lp6037
V1DugXe6DqZtzVKJVuNcgPL3Ecs5WKW2tyE
p6038
aV13DPamgovKxKPmALXXq9aaregBJnUk8E8m
p6039
aV12KegxXegcde3W8EFcqnKEJLReHRowXyuv
p6040
aV13UxrMZY3k7GWckJVGCV6DcvELrXiDWg9F
p6041
atp6042
a(Vcl0p3z
p6043
(lp6044
V1JwSSubhmg6iPtRjtyqhUYYH7bZg3Lfy1T
p6045
aV1JwSSubhmg6iPtRjtyqhUYYH7bZg3Lfy1T
p6046
atp6047
a(Vajunge
p6048
(lp6049
V1VALPSL6YygdxCtR2u4xHjQYeMThgMx3V
p6050
atp6051
a(VBTCPromo
p6052
(lp6053
V13Df4x5nQo7boLWHxQCbJzobN5gUNT65Hh
p6054
atp6055
a(VBitcoinSpaceman
p6056
(lp6057
V16pREzmSaYuVaA6TAybVDk3s5XupQaBDvN
p6058
atp6059
a(Vshred1
p6060
(lp6061
V1LEBKFoPFY4MzNALtWWr1NytNNhsinVeHz
p6062
atp6063
a(Vsirknala
p6064
(lp6065
V1vq1vqDT9VRXJwdiEPE8HdFT9FVo4rPLR
p6066
atp6067
a(Vhenryb2000
p6068
(lp6069
V13aGKge6HiEd3NV6iaguP79RnKK653JxC9
p6070
atp6071
a(Viamsonge
p6072
(lp6073
V1C2zaVZBwLfS4mJAgjKKVPp8xppVxeLTMN
p6074
aV1C2zaVZBwLfS4mJAgjKKVPp8xppVxeLTMN
p6075
atp6076
a(Vvdogg89
p6077
(lp6078
V1Dorian4RoXcnBv9hnQ4Y2C1an6NJ4UrjX
p6079
atp6080
a(Vtabris-angelus
p6081
(lp6082
V1Cd31qpTto6VwYMbBjACEE6qRxhMhvyTz7
p6083
aV1G55huqttud7owTdFhmusRqi4az9J3rSBv
p6084
atp6085
a(Vameanbitcoiner
p6086
(lp6087
V16EqDcMQkq13SjKxQp7hV14BdYDTHc3zuZ
p6088
atp6089
a(VPortableGorilla
p6090
(lp6091
V1FFjXqsjt4LpPFSu7CxYdRzYTBWXnreCUZ
p6092
atp6093
a(VBitcoinSpaceman
p6094
(lp6095
V16pREzmSaYuVaA6TAybVDk3s5XupQaBDvN
p6096
atp6097
a(Vdax702
p6098
(lp6099
V1NuNVDdGnKs6YUM9nyQ4SCw8vLXdp58rDw
p6100
aV3B8TQXwU3CLBWWy3jhDxb7zQSiyLvSVTU7
p6101
atp6102
a(Vbtclottolgjvdi3y
p6103
(lp6104
V1mUWuCtzcAkdaQvysFUNdDeLcEpvVYyEK
p6105
atp6106
a(VDBZfly
p6107
(lp6108
V1Q3bxmc84krBMaSXqYBbRauE4zeqbQBTVG
p6109
atp6110
a(Vyomofos
p6111
(lp6112
V31b1f7fe2f6249eff4cfd135259d12a1
p6113
atp6114
a(VUlios
p6115
(lp6116
V1KFNxwwABNd7uK3CZLCQh6Wkkv6FWLRXvN
p6117
atp6118
a(Vgavinandresen
p6119
(lp6120
V127gDrfEUy51qiYUvy6wYpuQ7gDxXSe449
p6121
aV127gDrfEUy51qiYUvy6wYpuQ7gDxXSe449
p6122
atp6123
a(VBitcoinliz
p6124
(lp6125
V18XkPm3cm1mjbb19NEdvLZq7XyPQJcLUZG
p6126
atp6127
a(Vigoshelf
p6128
(lp6129
V1LM2XXz7tNo489FHQttPDU6UFSZTaBEDv2
p6130
atp6131
a(Vmustyoshi
p6132
(lp6133
V1KKpFBmakvfq9Gt6wGi1RaNy2VPkFJg9Hb
p6134
atp6135
a(Vthrivenotes
p6136
(lp6137
V1PAt5oKQGBRigFDY6fB2WgQTtQJNzFyTDr
p6138
atp6139
a(Vsolomania9
p6140
(lp6141
V12a6qt561nbNBhHm7tjPRMKkDcHGw4wTnV
p6142
atp6143
a(VPianoBit
p6144
(lp6145
V1MZJQuMjPDGXgE4nfPgAZNVvCXyvTwJeED
p6146
aV1HAQtQFXVDAh9exPZtvVphAnJZckHNGp6G
p6147
atp6148
a(Vparst
p6149
(lp6150
V1Dorian4RoXcnBv9hnQ4Y2C1an6NJ4UrjX
p6151
atp6152
a(Vshred1
p6153
(lp6154
V1LEBKFoPFY4MzNALtWWr1NytNNhsinVeHz
p6155
atp6156
a(VSobriket
p6157
(lp6158
V1eHhgW6vquBYhwMPhQ668HPjxTtpvZGPC
p6159
atp6160
a(Vkitthecar
p6161
(lp6162
V1DyG5ye5wKeoRo4AYowDF4MtUb1turjDwj
p6163
atp6164
a(Vcaedesv
p6165
(lp6166
V32wRDBezxnazSBxMrMqLWqD1ajwEqnDnMc
p6167
atp6168
a(Vchrisbayly12
p6169
(lp6170
V1AM6789NBWPs1o4HYg8kujXcKM5GY1gc6G
p6171
aV1HFKKCbMPvx65rHWWWFtPxJxJhZ8voYqpy
p6172
aV12RoBgSMA7iv5zxtEfDfVwnCUHwNp3Nwhr
p6173
atp6174
a(VSaturnix
p6175
(lp6176
V13CUZRZEG4xoD3k38JPsEvftYACAFYmHzZ
p6177
aV1Ne5bGjDdgmbsGdNK9ocwrQiWf8K1FTuSa
p6178
atp6179
a(Vbitcoinian
p6180
(lp6181
V16Jvm2o4rkooT72FsCvKkhthjqJJ4WmkVY
p6182
atp6183
a(VKeepLeaking
p6184
(lp6185
V18BmFvR78YM6oydY5xUJK7r4WHPZpRvtMG
p6186
atp6187
a(Vherrtim
p6188
(lp6189
V1MHMpzFxx4fRSaeYGSxhyEcgux7j4Gqwsc
p6190
aV1MHMpzFxx4fRSaeYGSxhyEcgux7j4Gqwsc
p6191
atp6192
a(Vidlestabilizer
p6193
(lp6194
V1HdVFS7fEhuxqPjALaoJxC6P8ryScYKMLS
p6195
aV1Bqwb8KYsBXFBmA5XiMAPNNR8YLo8sBdCB
p6196
aV16pzkGcKprERsyBr2d5KKCTtTnd7c5nhh3
p6197
atp6198
a(VAdhesiveSquarePaper
p6199
(lp6200
V1GDFQTiaZGzsJF2yZ1XwAaeh7mmBBLmMzR
p6201
atp6202
a(VGappleto97
p6203
(lp6204
V1KK2WaRauPnm8XJc1rPRMc1JKSt9Bv6WP
p6205
atp6206
a(Vdreyzehner
p6207
(lp6208
V1ZkgJrmigCUgRnikHioCUnaKc1Ef24P5
p6209
atp6210
a(Vdavidshares
p6211
(lp6212
V18wfs69iiLUivru32EmVu4bmvrunBLptyN
p6213
atp6214
a(VJayS_NL
p6215
(lp6216
V1FmMasfuEE6wtpzdWiVnDynfJ5tyyVbhP3
p6217
atp6218
a(VIsoNumatic
p6219
(lp6220
V16R14EH4v8A9GPXkAAP8gcMFBA8oxA8nbY
p6221
atp6222
a(Vthewebman2
p6223
(lp6224
V1Dorian4RoXcnBv9hnQ4Y2C1an6NJ4UrjX
p6225
atp6226
a(V530sliderelief
p6227
(lp6228
V1JABL93BGgCrjtVn1NsuR2f1K3SEvXq294
p6229
atp6230
a(Vdstdtzs
p6231
(lp6232
V1McNsCTN26zkBSHs9fsgUHHy8u5S1PY5q3
p6233
atp6234
a(Vrobboywonder
p6235
(lp6236
V1CC3X2gu58d6wXUWMffpuzN9JAfTUWu4Kj
p6237
atp6238
a(V530sliderelief
p6239
(lp6240
V18viNoZDGDMaTjz1g4C4RXVtYea7H5J3SG
p6241
atp6242
a(Vcgcardona
p6243
(lp6244
V1AgzXorQHKmWTYWbtJnzBaJYQVMJi6CDhD
p6245
aV1AgzxTcbTpgEiHYhVUdfzc4R1rzF3ttGW2
p6246
atp6247
a(VFiftyswen
p6248
(lp6249
V1ALA5v7h49QT7WYLcRsxcXqXUqEqaWmkvw
p6250
atp6251
a(Vemprr
p6252
(lp6253
V18LpFUP6qu639sch8LSPAA3LLUm1wh3iJe
p6254
atp6255
a(Vtartare4562
p6256
(lp6257
V1JHCn9wLLXHc4yfo968FrT259Um2hzeUpy
p6258
atp6259
a(VPyrofer
p6260
(lp6261
V1Durkinre2U4tN1t7ea6MtbktqQNiNUovo
p6262
atp6263
a(VMoreBloodWine
p6264
(lp6265
V18F7k15bcEh86pw8HDbub6EnDav4XmxvaN
p6266
aV137aDnbx1mfPa21oGRkiNu1bGWa8D94xP9
p6267
aV18F7k15bcEh86pw8HDbub6EnDav4XmxvaN
p6268
atp6269
a(Vevilkim
p6270
(lp6271
V17Hnusfws7KsofWyZcNgTZ2hrWPrKuQ2na
p6272
atp6273
a(VStingLikeABeee
p6274
(lp6275
V1GDRU9r9KV8GxVvh5QnYMo3Tb8CN9Hzdah
p6276
atp6277
a(Vblockchainwallet
p6278
(lp6279
V17Hnusfws7KsofWyZcNgTZ2hrWPrKuQ2na
p6280
atp6281
a(Vshindasingh44
p6282
(lp6283
V16ieNcGJQa5jBe9wyZyzeiY9gBUvGSN2Vj
p6284
atp6285
a(Vtartare4562
p6286
(lp6287
V1JHCn9wLLXHc4yfo968FrT259Um2hzeUpy
p6288
atp6289
a(Vcoinbook
p6290
(lp6291
V1PDZTQhRJw1qPuY1yG1egDkEuKgZemnmtm
p6292
atp6293
a(VNEGU-NeverEverGiveUp
p6294
(lp6295
V1JtCz36e27LFGeguuEyCvApL3dt85X7TVD
p6296
aV1JtCz36e27LFGeguuEyCvApL3dt85X7TVD
p6297
atp6298
a(Vjohba
p6299
(lp6300
V19xeDDxhahx4f32WtBbPwFMWBq28rrYVoh
p6301
atp6302
a(VCarlMax
p6303
(lp6304
V1xyp1CX7hZsr6VekU7SK3TcfX8d9P36gu
p6305
aV1B4fUacBT74kH9VsTUsLss3Bz3GMjnUqvU
p6306
atp6307
a(VMantleMiner
p6308
(lp6309
V1Fhk8JdRzNPqLMQtnLhs7jntAfJD1BfHfU
p6310
atp6311
a(Vsgtspike
p6312
(lp6313
V1SgTspiKe5HHkjdSeD72q9WsiJhRiaxf9
p6314
atp6315
a(Vbfxdata
p6316
(lp6317
V19xbr7HuXb42pNV4Qsiwgw8JJHnnWGcSN2
p6318
atp6319
a(Vthrowawayaussie1111
p6320
(lp6321
V1HcZyBdd53zbtoAUvUGSw1YaqTCLEA4o79
p6322
atp6323
a(Vcspawn
p6324
(lp6325
V1JGKoJzRussL66rVgxTEzJsGr53i8DbNqK
p6326
aV1P2FZUY27KCNBQduWZ7ibvusmV8asuBatT
p6327
atp6328
a(VIceTurtle4
p6329
(lp6330
V1B78ThutN6djGkQ7htA16oan85rbRCf1VP
p6331
atp6332
a(VSathhabbit
p6333
(lp6334
V199QesmgYoQYGDTRyFnz3bFKDdZD4n9pGn
p6335
atp6336
a(Vlnovy
p6337
(lp6338
V1La4eXNXYLF41cnkADh2pKi8LGN7ePSFde
p6339
atp6340
a(Vpookietown3
p6341
(lp6342
V14dqWzZ5kn6VDgVquzuvkLeL1SGSvML3ap
p6343
atp6344
a(VToDeMoon
p6345
(lp6346
V1A94fnmVYqDp3HXbSfkeLKnTy9fnSKGqiF
p6347
atp6348
a(VBitcoinNator
p6349
(lp6350
V1CxdtNxfRxSJPHjXMQWFfkdEFYNiqBAyZ
p6351
atp6352
a(VSuperJediWombat
p6353
(lp6354
V15JiYiCJEZ93s75F9RJRDpNWLaDn5qncbw
p6355
atp6356
a(Vsheeproadreloaded2
p6357
(lp6358
V1AhYNAoMxDPD7bnNvxuSY9FB1CDviEuqzZ
p6359
aV1LfV1tSt3KNyHpFJnAzrqsLFdeD2EvU1MK
p6360
aV12Nxd2X12WZeYSjUcbtm5NpS3d81Yh8sKh
p6361
aV1LfV1tSt3KNyHpFJnAzrqsLFdeD2EvU1MK
p6362
atp6363
a(Vtenfef
p6364
(lp6365
V1Af3EHHrbYRwaj4dcbKKcBxYxc6Z8j7xMZ
p6366
aV1Af3EHHrbYRwaj4dcbKKcBxYxc6Z8j7xMZ
p6367
atp6368
a(Varcticmastic
p6369
(lp6370
V16ZvPb21H6e8BhrWNuPyZj4RUcfygn8enj
p6371
aV114dSXVySv29bLc9cX6hX8xqRxwq4nUMo6
p6372
aV16Lmf8Uejk7kLbE4vA9gbtHjRmQfk33NSr
p6373
aV13fm6vvm2iJafsamjqp3rLuwSW6K5iuyPT
p6374
aV11WhVxf1WS7oZ55qnJABVtsFQgvbL1Kkj
p6375
aV13qQPQW5rpDe7Y2SEZK1LdpLWJzxX9NPAT
p6376
aV15odTfunb2Sn4jAvHk4sgW6iKJTHjk9x8A
p6377
aV1MYDefrL4C9KMBS5yn7F7CRLp3WW6CSo1h
p6378
aV16wHPGxoHY4j84TniZiGboQA8Bj745Q72g
p6379
aV1EVMwbYRig9dKsiCfUkUnp7tCFsy6szj9a
p6380
aV1KVV63XCyYvUfcXatR1vqS92oKSRZDLqzi
p6381
aV1LqMxZy3pUJ7NzQ4khZBfAAqtKYat5uKXX
p6382
aV15THRRAk4QrqhGHvgd4yWN5dkLicxH1F7C
p6383
aV1Exgak21zYUn51pHwtDGUsBnEeMsRV7vHE
p6384
aV1LLwo23YfX5Tfz7B9XUp8e9tP6qKhXa9ij
p6385
aV1A2CQmQVTjnF7yrabAjcZH6BmKRf44UJs1
p6386
aV1MGcaDAhXp9Q2zDEEjdXkL6EsZEZcRKYWX
p6387
aV1GmvqRxzfKbjrshxuciuS4DDmFwh8WMLEo
p6388
aV1NqWDAtBewZnHPX6n2KgfhLzP5VVfWx4VN
p6389
aV13LG87AzMxH4vy5fHiBKnU2hsVT8JSeCcJ
p6390
aV1AsQogoKaJBWox8dVNVSUAEKjpnvcZSJuz
p6391
aV1BzthXwUQhY46dLQq8TNukEAfDYtVmKS6z
p6392
aV14GityfFbWGQTRcXvNAtctA3xkWa8d21xZ
p6393
aV1237TZFnvH8oPe4upG3fuUVcxPh9uym4oD
p6394
aV1BbjzwUUyu3e5of3QQirktG1XcCXKcedSA
p6395
aV1DZMUX7WcGPmcRh8WbHTXS8XuFKoFMrR75
p6396
aV1HdVFS7fEhuxqPjALaoJxC6P8ryScYKMLS
p6397
aV1ExkV4rqf6rmTcnaRDb4CwkT75L8ihSa2
p6398
aV1LpisrbZHJAr89eoL6ZCeP3jRCxUbizz5a
p6399
aV1Nu4jsD6zfL6tuSvp3FqtoUaqEMKqE21h2
p6400
aV17tpL2ZU8bePtuq3aK3VYxm5dRDpkvMFVc
p6401
aV1Dx8BNX8R2JELjFytwG1LQYc1DqPdB9pD4
p6402
aV16Tq1FrWMxNQtWGGXyxYNzH9CMGDw6TjiF
p6403
aV1CSQrc4k34wPQtS9yFCJG69hyN4mHTnULu
p6404
aV1GrnyDnAN3k58anSYrJfu8zpB8c1LPEMEZ
p6405
aV19oCuYc2qTj8ioCxSRAhrsQSALa9RhcHHh
p6406
aV1BLEYvPQPAovxnAcU5sGdH7Fe5bcN3X4i
p6407
aV1AGotm2Z14mNn69SqepvkbtHENsrbM7aXo
p6408
aV1Pbfe7VdJhTm3PyZwXiwtfLyFg116fM1po
p6409
aV1J4NhZFdBsuMLxVbYGa1qrdJ1aRgTX1NqD
p6410
aV1vXjjnXMsRZvHarx4JZFRf7rxm8tGqM8i
p6411
aV16pzkGcKprERsyBr2d5KKCTtTnd7c5nhh3
p6412
aV1MwMqRC66WwxLWMfTxpBrjm66HoczSgUiw
p6413
aV1B6iED861UPsbfCMTFahm5uuqwLo4s7Ymu
p6414
aV1CkjB2F3SuBhUD1iRTxXdjpqaFdxbbS9fD
p6415
aV14cSFjN57JCixCqjXMYjrF7eg6msqzBE9u
p6416
aV158aTS1U1vVRke8QKbdJxE1otM4agFaAWi
p6417
aV1BYkS7eEpaEatDfFTMkUgi8Avkczp5weoh
p6418
aV12pa7SGMDtRtDUaZ6aUoTGiHJZKyngTjyL
p6419
aV1H7c79zeqiVCT57UGnu2JYd3ZJrNC6YhuS
p6420
aV1wKLozrCCiQX9LAtjghy9Aj9b164oqsPX
p6421
aV1MM7wg9KdqeY2RPsPd7m3c9jJYsebv4YNx
p6422
aV17eknwKbheM5F9Ji5QfjvaDMCo7tDNDces
p6423
aV13PCfh3DPxkmukUxirwvDnJV2qiJ8Bb3D2
p6424
aV1D6bW87AAJMxx2abhz86VQooye2Sc19FrS
p6425
aV1BPdcWVAmrEDuZw1LUoNJyxPFvrWc9EK2K
p6426
aV1N1cCXJn8KiuL9KYkUWA9ru3oo4aSfAwYq
p6427
aV1KvuZPrEVsoko7cvz4gufiZnKeDZRqWtgb
p6428
aV1egofZrY1Nx8PLW6XjBxytGHVKtuRdfA2
p6429
aV19PpkjaD8uNsqXr6ETmyHMqNpnrjLXCssW
p6430
aV15VzaQzn46HdTre4BnTBuBPN4621ZfTJm9
p6431
aV18YPwY65u8fyHYuwqqVtWY4NZCbQKsN5zw
p6432
aV15GEHrRgxmGLHPqUArP9mTUwjYjidZpWXS
p6433
aV1PPuu4uXak2rL7VbedK6huiPtbHXApCVuG
p6434
aV1HhQa5jetGgDhA7tBVjaaC97JADwBx79FS
p6435
aV1KLogjaYPqoW5zeK1YASkzF1CPf2RABPAD
p6436
aV1GZN8XoE1BCdgJSJngjYWsNx7erSWzF8ZU
p6437
aV16NK7eMinGcB7N8A1VDfKsM4ASr4Dbo3K8
p6438
aV1L9PzyD1qGh7JRMcPYG3cRNGs4ndNdRnMH
p6439
aV17MLL3a2RRwU6pofiaAszKYaHUhL8djrtY
p6440
aV1H4xMgq6gud2RrEQyQVCJjnbhtLY9ZBQjZ
p6441
aV1DEZUAWLMcSXoJG443x1RSWLFLLDPq7q4u
p6442
aV1Mi6XtS7USxafnQ22CnszsUgd8Vya8ZK18
p6443
aV1BabhY83EVpKak24G82kMLPKWFrjszefT4
p6444
aV1HiBH2KSapjAsYBg15g7mRp9X22SbArnet
p6445
aV1PRmNhgidzGqCnkEaa2qf9qAyBPnnnk71k
p6446
aV1D2MRRk5kT7zCzCTFsXfHvZymty3SvaiEA
p6447
aV196va1MHd9kmVmCtStVuXsGQvWuGpwE2Ym
p6448
aV1MQRo4iL4NySkyh5676w1txoZtHGHd3vK1
p6449
aV1KN3VcxpGMANCuRgja4bibAvso1W2Tn2UR
p6450
aV19S8hcbFRqyRSMFnzodhjHcTrnfnYnuNgu
p6451
aV1AXCskQbhuVQmYEbMmUxbUZsVS16Gi1qnK
p6452
aV12xNb2TaNWTHjYqT1Rgyv7am9YLGnbTVAb
p6453
aV1Bqwb8KYsBXFBmA5XiMAPNNR8YLo8sBdCB
p6454
aV19cBWV2ctKCS83KodhocGZx8deCdU6iHwa
p6455
aV1JnZ1VKhZJTaEgz8FdUXVhHhvFydsL52CL
p6456
aV1CpoyWoPcFzaMLRu7WmvegaiQFEpyDV9m7
p6457
aV16fsSeGisREiY1i29GFrS64MdBB6s8Wi3Q
p6458
aV1JsrRV7XpJ7EComGxEQF6TK5tPzeiKUCSU
p6459
aV14TstZoBGrcyuCUfD2rmCaPcWWZHk4Khj8
p6460
aV1PqWQXtZ42vrGVqYqrxmetBWLQYfGEyXxb
p6461
aV1AYd2J2h5xocKVJJG3YcPfjqXLoLwQxDM
p6462
aV1Q9fXPanhH6BSCprUPZABLwmjBaDEkAPWQ
p6463
aV18H4CsirZuKKmK7YTumN9A43jQyQhr1frm
p6464
aV1Bqj48ZvcmifgnAUYgRkTADGrmGLUZr7nv
p6465
aV1AZGzDXEv8W2x2u4uEjsYNf6L7X4mh1MWb
p6466
aV1Lvao8sHCB3cxrfkowjpQBmu59dKNNVLkA
p6467
aV1BRyiyT2JRa5FkefTkRog5RgmFWrDqfUc7
p6468
aV1L5PpUtAZYyW9RSVigawUBTBHFsdp7yFAu
p6469
aV1G9erGPeGmKZLNhZzRv7kT8F22pT1UPdnM
p6470
aV16FuTEtt4rMEiaVHTDnnh6xDdJ1JY4qwDk
p6471
aV15Cb1ABAG5eEtfFCibJrNokStgSrccnkFB
p6472
aV16YWzbBCSYmxq4HJ6vB7ZZbz9TnHscoZC
p6473
aV13yF72mBTWyyDNHcrL5psiGbvsrgpizkGM
p6474
aV16xfP6XtmV7spDUaA7E5hXszd5DXZg58gm
p6475
aV1Cs86YafFQYYE3zXggaCrMM6aZq2C1NXdA
p6476
aV14CXHJCeAkaPY4ikx6PnJYbhedrE9vxPiG
p6477
aV1GWKfdcW88EcHd2pks6owuWdEAURGofgkS
p6478
aV13QpiaP6BG4yZZjS2Av7m53BSR7hWWhwoz
p6479
aV1BCLtTJhFTVjhsE88m77HPeqpR7xudgs2r
p6480
aV1Duv6NLt37YjxunBBfrz944zEKUbdtpzMG
p6481
atp6482
a(Vbtcplzgoup
p6483
(lp6484
V1BuDW3f3hTjxDEUhmgUBFoUv7uH6yB21Ys
p6485
atp6486
a(Vgoing_up_stream
p6487
(lp6488
V1BGbGFBhsXYq6kTyjSC9AHRe1dhe76tD6i
p6489
aV1BGbGFBhsXYq6kTyjSC9AHRe1dhe76tD6i
p6490
atp6491
a(Vroyalevictory
p6492
(lp6493
V1GDRU9r9KV8GxVvh5QnYMo3Tb8CN9Hzdah
p6494
atp6495
a(Vgraduationpledge
p6496
(lp6497
V15ECxAghqBHTANSf1jARgD2nAkzpQaFg9N
p6498
atp6499
a(Vr_hill09
p6500
(lp6501
V1c1fa197e6c58be9408007e4500fa800
p6502
atp6503
a(Vmustyoshi
p6504
(lp6505
V1BGbGFBhsXYq6kTyjSC9AHRe1dhe76tD6i
p6506
atp6507
a(Vczr5014
p6508
(lp6509
V1Ky7VknNByRdF8seMromVcc1JxjGHGYGeV
p6510
atp6511
a(Vxd1gital
p6512
(lp6513
V1ALA5v7h49QT7WYLcRsxcXqXUqEqaWmkvw
p6514
atp6515
a(Vdevnullrandomoracle
p6516
(lp6517
V1P5guqGkUEtLbTeBiektbwHK5Cg7vdzgVy
p6518
aV1P5guqGkUEtLbTeBiektbwHK5Cg7vdzgVy
p6519
atp6520
a(ViWeyerd
p6521
(lp6522
V1CPyea9MtLXiFk6rAMLZux6FPPsHAMF6oM
p6523
aV1CPyea9MtLXiFk6rAMLZux6FPPsHAMF6oM
p6524
atp6525
a(Vdaddithegood
p6526
(lp6527
V1E984zyYbNmeuumzEdqT8VSL8QGJi3byAD
p6528
atp6529
a(Venkideridu
p6530
(lp6531
V3dDJFVW00020130819e98jauzi8
p6532
atp6533
a(VFlyGuy74
p6534
(lp6535
V1P1QgCBbMDW9PAWHRz3KMxQWcdsTeKaK9j
p6536
atp6537
a(Vernis45
p6538
(lp6539
V1KnBJi9cstTXTfN9H79sntwC8BU1jMufXR
p6540
atp6541
a(Vnull0pointer
p6542
(lp6543
V1GBUvVWRnkb8xXbjh8tWcCgfhJFVNUfJ6V
p6544
atp6545
a(Vletmebedoge
p6546
(lp6547
V37DQkuz1fex4uMBUkqiz7dHUz4Ku
p6548
atp6549
a(VMelRobertson
p6550
(lp6551
V1HMQR1KkUsLLNimMeB774UBFhkBmH2UE1m
p6552
atp6553
a(Vbtcgeneral
p6554
(lp6555
V1ERU9WXGTZy9krzVfJ5Ks7Nxfgu8CeowRV
p6556
atp6557
a(Vletmebedoge
p6558
(lp6559
V37DQkuz1fex4uMBUkqiz7dHUz4Ku
p6560
atp6561
a(Vhalibuthero
p6562
(lp6563
V1G967MwCf6XsMufpot3wHzbYnU3d2RevD5
p6564
aV1GMwCf6XsMufpot3wHzbYnU3d2RevD5
p6565
atp6566
a(Valexander1122
p6567
(lp6568
V14KzGxybyKQ4i6ftZ1Jzpdc3xGsko3tvJa
p6569
atp6570
a(Vdrapetomano
p6571
(lp6572
V1DaYGBhbfqSPEJDrUFwhLwWn2WM5CfrYUS
p6573
atp6574
a(VTalkinBush
p6575
(lp6576
V1KzKK1Ke5Xz5fDRbZWEMQavdm1zbCiddGo
p6577
atp6578
a(VTerreCiel
p6579
(lp6580
V1McNsCTN26zkBSHs9fsgUHHy8u5S1PY5q3
p6581
atp6582
a(VBenedictTCumberbatch
p6583
(lp6584
V15mwFH7smVgPqce7MEWe7Z93xkMBP6wugo
p6585
atp6586
a(VOMFGIMTHEBEST
p6587
(lp6588
V1N5giqsxzJHN46hTFoYXoL3ECH9HKRbS2h
p6589
atp6590
a(Vcolkito
p6591
(lp6592
V1J6KuuQsoBie4bLu3it4xfeB1Bfy2FwNy1
p6593
atp6594
a(Vgabet123
p6595
(lp6596
V18GoSRDTdxPXBy7pXbwWTip5AWviqjJfD2
p6597
atp6598
a(VHertzWhenIP
p6599
(lp6600
V13X9oSW4qvirocK4Vy6YjAygFcYqsgf3zi
p6601
atp6602
a(VArcticBrewFella
p6603
(lp6604
V1DvLygBZKK94SpchghUcQ3MgNs9PGiwdc8
p6605
atp6606
a(Vjustabtcnoob
p6607
(lp6608
V175GT4PsFAYMT9zGrW1cdjZmGJCd3NRoV7
p6609
atp6610
a(Vxentagz
p6611
(lp6612
V1GtAW7vntpij1q8Mqi3FQw8R1gAd9rnRV4
p6613
atp6614
a(Vxiphy
p6615
(lp6616
V1FzQW9CWpNBoqUmaLFKNMAYiBhj6ncJA7N
p6617
atp6618
a(VFreefallr
p6619
(lp6620
V1FB1Wry957GoPuasrwP9AZXj63P1won3dS
p6621
atp6622
a(Vgregnie
p6623
(lp6624
V1PigsRJRWLZxJzs9AwqBkrCnr5cYQePDir
p6625
aV1PigsRJRWLZxJzs9AwqBkrCnr5cYQePDir
p6626
atp6627
a(VOracle_of_Knowledge
p6628
(lp6629
V1E8rQq9cmv95CrdrLmqaoD6TErUFKok3bF
p6630
atp6631
a(Vtrevsempire
p6632
(lp6633
V1C9K9sToH1UCLsqvqCTc4pDkSXjbfPbckt
p6634
atp6635
a(Viwantathink
p6636
(lp6637
V1LpursCfDsiQcg6v6isdYFyKe4DNtYoXk2
p6638
atp6639
a(Vasmosel
p6640
(lp6641
V1GxXdfRa51UTTp3JE4SstuMiFwTMWwKRnW
p6642
atp6643
a(Vjasonmaurice
p6644
(lp6645
V18fgJ9ZbyL4U5KB2UxQLSDCypwynBKpUrM
p6646
atp6647
a(Veconoar
p6648
(lp6649
V1BSg6kc2qb95k6XTr88nXrcH1Aa1YWZqiM
p6650
atp6651
a(Vpinetreecrush
p6652
(lp6653
V1McNsCTN26zkBSHs9fsgUHHy8u5S1PY5q3
p6654
atp6655
a(VLoIindir
p6656
(lp6657
V1DXronGBSsFuQ5TZ741AR97XFKhQQawVCa
p6658
atp6659
a(Valphageek
p6660
(lp6661
V1BGbGFBhsXYq6kTyjSC9AHRe1dhe76tD6i
p6662
atp6663
a(VContrarian__
p6664
(lp6665
V19fEtDNA8eiaGFpnpwBmPGhfKJMmWvCT8
p6666
atp6667
a(Vchriswheeler
p6668
(lp6669
V1DSMkNfhFRYoDiCws9D8RdFANsoVfMPFFh
p6670
aV1DSMkNfhFRYoDiCws9D8RdFANsoVfMPFFh
p6671
aV1DSMkNfhFRYoDiCws9D8RdFANsoVfMPFFh
p6672
atp6673
a(Vdriverd
p6674
(lp6675
V1NobuZ86rkMkk66nP3DfEUH7WYh4cHU4PS
p6676
aV1Ewk1sqTMYw41aYgtQiWvuoZbGGa99wHyj
p6677
aV1GRJycBJMQ41XkCygGKURgkqLd2qkwCQDB
p6678
aV1QLARqgCkymXrdJheVRoppvqykugKV2b84
p6679
aV16XEFVC22UZv2VLbjt4wQ5emuxvuoR721k
p6680
aV1MaCQsNEd2mFCRbcRdCNqHn36qBVPPsHYT
p6681
aV1JJPDx8RP8tjaqEZZaLeMmvQdbU3NzgghE
p6682
aV1JvA9dA1iusnhcjhGRy1xGyEy7ctwNu7Dy
p6683
atp6684
a(Vzenmagnets
p6685
(lp6686
V1McNsCTN26zkBSHs9fsgUHHy8u5S1PY5q3
p6687
atp6688
a(VThePiachu
p6689
(lp6690
V16KaCJB7fVuT6hvA7wzgzVjAnHz28bNvvh
p6691
atp6692
a(VXeasar
p6693
(lp6694
V1PoystgADDpPf36wjvqirMuZZQvD9oeyuQ
p6695
atp6696
a(VRivensBooty
p6697
(lp6698
V1GdEWa65qv5wEeaf3fK9qKByscfvyVtgBp
p6699
atp6700
a(Vbitcoinsatoshi
p6701
(lp6702
V1McNsCTN26zkBSHs9fsgUHHy8u5S1PY5q3
p6703
atp6704
a(Vjimmywales1
p6705
(lp6706
V1McNsCTN26zkBSHs9fsgUHHy8u5S1PY5q3
p6707
atp6708
a(Vkupandey
p6709
(lp6710
V1Mjh8oo7p5xiVZQQcwB3QCsiTBVBBQDuu6
p6711
aV1Mjh8oo7p5xiVZQQcwB3QCsiTBVBBQDuu6
p6712
aV18gKz15C5ZxDHbgssX1eJGKoMgPSRVyzTc
p6713
aV18gKz15C5ZxDHbgssX1eJGKoMgPSRVyzTc
p6714
atp6715
a(VColoradoCrypto
p6716
(lp6717
V19qEnTYPX7Gqj9cLD3JHBiHSSD9hg1Z4cn
p6718
atp6719
a(VWalterWhiteRabbit
p6720
(lp6721
V19N2NiMWcgF62mwmAzsdgEqKrVSafdyHo8
p6722
aV19FAyCiPzrrVrN1rXkYYMEVeS1aXYqocGT
p6723
aV1FDKQB5aN6w7y8WTfVwqFN4Yj3DyL8BCpu
p6724
atp6725
a(Vsuperfluouscogs
p6726
(lp6727
V1Dorian4RoXcnBv9hnQ4Y2C1an6NJ4UrjX
p6728
aV1Dorian4RoXcnBv9hnQ4Y2C1an6NJ4UrjX
p6729
atp6730
a(Vseboc
p6731
(lp6732
V13YSx8dtS6u7fPN1jQEscy4Z4kczaAS3Gw
p6733
aV1BHmSjNmkEPAdAKghfkfjSbXfREeYiFHgL
p6734
aV1LnGTPHWcsoPw1z9vYh7aZdqEHLfayBLWT
p6735
aV1GnodymNbbCjKRnmDF4QFmJWBdpAZSBtwS
p6736
aV1JfbUUnsPpDmSdvNsBGWkLx3xrvVrijYNe
p6737
aV18gBvfnML1FUhUoeWXQ5o4xJbNv3AQAEdw
p6738
atp6739
a(Vpigdead
p6740
(lp6741
V19v8BKuB1zepJ9qozoFjpGDE7T7bzANrpa
p6742
aV1KBQ3aCvfRQhpTjywDHjSddWKJcPfNm7fH
p6743
aV1FRYCAVPGiPTn5RrDRNGyeEjfHiEtm4w64
p6744
aV1Gc9EB83fPiaoyaneiDQXUzTrh5PxpioH1
p6745
aV1PHumFiS84GgxivXmQ6S6o2S798LYZ9PQQ
p6746
aV1KMSAFM41sEYxTr9spHCGWg3ZbseXtDTP2
p6747
aV15kHtw93J7Ua1tfwGqqG7YdckxcATgEMwr
p6748
atp6749
a(Vsatoshicc
p6750
(lp6751
V13xbFtB1Vi9LBdBEfyhmyuqhmRxCdMWpB1
p6752
atp6753
a(VCrackMeIfYouCan
p6754
(lp6755
V1LpRsvZaapH9wBxAjF8dmLZFHAimYQz1FU
p6756
atp6757
a(Vyemethzi
p6758
(lp6759
V1thxd4KJLhBMcfCYaVKYMA8Atv3Dfx9hb
p6760
atp6761
a(VMommabearhasgotbit
p6762
(lp6763
V1EDZf16UpArB4n8C8vQSXuTcVfDuVt78oT
p6764
atp6765
a(VWalterWhiteRabbit
p6766
(lp6767
V13Df4x5nQo7boLWHxQCbJzobN5gUNT65Hh
p6768
aV12MHLS1exdEzr3kDvgGLsnht9vdqscd5yy
p6769
atp6770
a(Vandreasma
p6771
(lp6772
V1Dorian4RoXcnBv9hnQ4Y2C1an6NJ4UrjX
p6773
aV1Dorian4RoXcnBv9hnQ4Y2C1an6NJ4UrjX
p6774
atp6775
a(VNotWantedForAnything
p6776
(lp6777
V1eHhgW6vquBYhwMPhQ668HPjxTtpvZGPC
p6778
aV1LUgwGu71vZh7uFcskCmgjSxraSqzduMHk
p6779
aV1H8PAUxZti5fwzbbeK5gwDdXvEZouSsNuV
p6780
aV1P3S1grZYmcqYDuaEDVDYobJ5Fx85E9fE9
p6781
atp6782
a(VZulandio
p6783
(lp6784
V1U5EGSHJeyZd4AHjcSCVZmcgepgKzB72V
p6785
aV1DbD7zFjYSQRiATc8dHxWUWSM9YmQYR9JW
p6786
atp6787
a(VMauledByPorcupines
p6788
(lp6789
V1P3S1grZYmcqYDuaEDVDYobJ5Fx85E9fE9
p6790
aV1MyGwFAJjVtB5rGJa32M6Yh46cGirUta1K
p6791
atp6792
a(Vproskilzz
p6793
(lp6794
V1CHEpS3rT5KNM5Fj6pmLzt38jZswYBfZpa
p6795
aV1CHEpS3rT5KNM5Fj6pmLzt38jZswYBfZpa
p6796
aV1Np62fdrCcHic4KJzaVyxyPthedLfgqfWn
p6797
atp6798
a(VHodorCoin
p6799
(lp6800
V1Drt3c8pSdrkyjuBiwVcSSixZwQtMZ3Tew
p6801
aV17ewBhK712mY2E4uPAbinThibdY2LRyabd
p6802
aV1DKH2oZtrcAAoZXsNJQnKBwKYaYdx5KrVV
p6803
aV1Gdciv8j4UXhph4eGDCFAWwp7KLvKKno79
p6804
aV12WFth5HabiVrcj5waHtDP1b7gXSQPuDPz
p6805
aV1EBHA1ckUWzNKN7BMfDwGTx6GKEbADUozX
p6806
aV18To4tSGXJs3S4kAowCBGF2eBY19JmYW1C
p6807
aV16QHP6L117iaJZqcqcLY6Cbgmomabra5hQ
p6808
aV1FVcMfHXPp8JSCduYyELzQZf6X4tSv89ho
p6809
atp6810
a(VBTGuide
p6811
(lp6812
V1P3S1grZYmcqYDuaEDVDYobJ5Fx85E9fE9
p6813
aV1F1tAaz5x1HUXrCNLbtMDqcw6o5GNn4xqX
p6814
aV168t4P2pBuyM7D7tmLKqgUVGfxZ4dvpktf
p6815
aV1Facb8QnikfPUoo8WVFnyai3e1Hcov9y8T
p6816
aV1Drt3c8pSdrkyjuBiwVcSSixZwQtMZ3Tew
p6817
aV1eHhgW6vquBYhwMPhQ668HPjxTtpvZGPC
p6818
aV1LNWw6yCxkUmkhArb2Nf2MPw6vG7u5WG7q
p6819
atp6820
a(Vjustarandomgeek
p6821
(lp6822
V1KbFeahLXXcVCF6opFGYNtEZbwsPaCwTwc
p6823
atp6824
a(Vrem0g
p6825
(lp6826
V1BTL1LWsvhSiJnEgGTAT92Eqck3HH5fj5h
p6827
aV1BTL1LWsvhSiJnEgGTAT92Eqck3HH5fj5h
p6828
atp6829
a(VIhavetoomuchBTC
p6830
(lp6831
V13D1VNPVyepQWMBPR8XtfQfQ4FJ4qu7DD3
p6832
aV13D1VNPVyepQWMBPR8XtfQfQ4FJ4qu7DD3
p6833
atp6834
a(Vomasque
p6835
(lp6836
V192MbJ1UW1uRJFoTHUJWSSgMjEpHJcqB8i
p6837
atp6838
a(Vssholdings12
p6839
(lp6840
V10TfyGxEuQ1n8TYZRd4t8i17MARqxm
p6841
atp6842
a(Vfrrrni
p6843
(lp6844
V1HBaHP9mh8qRdsMbh8ZrQFZe3hxu8AkZga
p6845
aV1HBaHP9mh8qRdsMbh8ZrQFZe3hxu8AkZga
p6846
atp6847
a(VBitLost33
p6848
(lp6849
V16oRXSdfYpUFjPq5B44Y7p3wGqEGAHo7Yq
p6850
aV1NAMme94F9xF6h9DMN9qcumpg95CEi4CLq
p6851
atp6852
a(Vmaaku7
p6853
(lp6854
V1KRabAP1uc179hivEcJA8dCNQ3kC6oU5Av
p6855
aV1K98wFM5k6cj3GeiAg2gPnRE9N8FMP
p6856
atp6857
a(Vthrowaway43572
p6858
(lp6859
V1La6D1DR7CgbysSubCJD65c5T1FSrRJFjZ
p6860
aV14YarNeVKHSoq7Tp4P51yc4Y94EXhdfQL5
p6861
atp6862
a(Vantoniam2
p6863
(lp6864
V1DZcyGgR1EwPUkHRjwaA5TVHvuH5i3nrTQ
p6865
aV1C4LwP2We1nCqJJ6BBfLp3WgABBDHvow9o
p6866
atp6867
a(Vdello474
p6868
(lp6869
V1XzhNiojhY5dSTXeaCqB6bQT5W4B5PAW3
p6870
atp6871
a(Vxv2gang1
p6872
(lp6873
V1KvHt6zjQVihCYwWc1R4iq1XD5XHFf8DE
p6874
aV1GTzSqZnriRDQhYCuCogJWBdsLohbiQDjm
p6875
aV1H8o8rMeKqTmzAYPzTJ9dsQS74gFhbo9Cb
p6876
aV15djbnRFum3JNUdtC2kziifUMbfKxHeVq7
p6877
aV1HiikvA8WCDVudNsoVgh56Kxg2nBEPGxkU
p6878
atp6879
a(Voakpacific
p6880
(lp6881
V1JbbZMyAUHoMDJo57MjApgvKxF3EFUrqum
p6882
aV1LwoFX5BovWUJAKNcTFpnUgXebkQ89dctw
p6883
aV1Erym9piP3LcRNGBCEiAYMw4xjBT54yhKM
p6884
aV1HiWWzYGKbQxKTLJDeCRAkRMxzMR2f9Zz7
p6885
aV1FE6hctGqgb1znGUq1h36r2xBT5C2of3Wp
p6886
aV1FBiCxd41EgQ4u6PQVsAadDoot7FD9sx99
p6887
aV1EuMa4dhfCK8ikgQ4emB7geSBgWK2cEdBG
p6888
atp6889
a(Vefstajas
p6890
(lp6891
V1C4bYBr3tN4sMKxvvJDqG8NkdR4Z
p6892
atp6893
a(VRassah
p6894
(lp6895
V1Rassahgt3XSxKVJ62oSrQJxtH3wk4MKX
p6896
atp6897
a(VEdanYago
p6898
(lp6899
V39wbuEjp3mfFAB3bTjmkFB69XAmKYRMq5i
p6900
aV39wbuEjp3mfFAB3bTjmkFB69XAmKYRMq5i
p6901
atp6902
a(Vthrowaway7384975
p6903
(lp6904
V1Fskz4Fvc6aaWucpC3Bz5jMu8LabKGJV9c
p6905
atp6906
a(VBTGuide
p6907
(lp6908
V168t4P2pBuyM7D7tmLKqgUVGfxZ4dvpktf
p6909
atp6910
a(Vgoxxed123
p6911
(lp6912
V1EuMa4dhfCK8ikgQ4emB7geSBgWK2cEdBG
p6913
aV1EuMa4dhfCK8ikgQ4emB7geSBgWK2cEdBG
p6914
aV1DdNj5otWGcmbsrfMbo9sTWMvWhkK1qJcV
p6915
aV1C2HSDL8fc7HdYnpepn2LB6LKAuhLAqsYV
p6916
aV139TcUJTcPAW2kAemKxSgNY5tXbfLcuX6p
p6917
aV1547z2dz2fwgGw2hTgx3vrWn4xMnNcCwwX
p6918
aV1PMdVMQrTroKYKv5tG3Vn2rGjcV4eBNCXf
p6919
aV1EsTuGn46WELzQMjNsVQymtZ2Eopb8jJTs
p6920
aV1P7qo7Sifbr82rwEHAgH42fRUN7YgR688o
p6921
aV1Q2yfhekECwPPvdP88WFLn85VSRi4iGZPa
p6922
aV15pFVkHQT2urzdDNhPX7VxgzzU3ZStL93h
p6923
atp6924
a(Vjaimefcb
p6925
(lp6926
V14zmgtQPYA7WpZnHAGJ8pZ4Z3Eve62yNXi
p6927
aV17VcVBE4F8AWRyNuCZNirQwKsdhLuj9FKL
p6928
atp6929
a(VChioDip
p6930
(lp6931
V12MrR7KajxfNpdmdMFuueXe641YAsvKffF
p6932
atp6933
a(Vunk1911
p6934
(lp6935
V1XXXXXXXXXXXXXXXXXXXXXXXXXXXX
p6936
aV1XXXXXXXXXXXXXXXXXXXXXXXXXXXX
p6937
aV1XXXXXXXXXXXXXXXXXXXXXXXXXXXX
p6938
aV1XXXXXXXXXXXXXXXXXXXXXXXXXXXX
p6939
aV1XXXXXXXXXXXXXXXXXXXXXXXXXXXX
p6940
aV1XXXXXXXXXXXXXXXXXXXXXXXXXXXX
p6941
aV1XXXXXXXXXXXXXXXXXXXXXXXXXXXX
p6942
atp6943
a(VSgtPeepers
p6944
(lp6945
V14o7zMMUJkG6De24r3JkJ6USgChq7iWF86
p6946
atp6947
a(Vidlestabilizer
p6948
(lp6949
V1Drt3c8pSdrkyjuBiwVcSSixZwQtMZ3Tew
p6950
aV1FVcMfHXPp8JSCduYyELzQZf6X4tSv89ho
p6951
atp6952
a(Vkmaikataz
p6953
(lp6954
V1LNWw6yCxkUmkhArb2Nf2MPw6vG7u5WG7q
p6955
atp6956
a(VJavaDude95
p6957
(lp6958
V18GCenZhDMyPHD8JPi1hkuwVq4ugmWxm3U
p6959
atp6960
a(Vduetschpire
p6961
(lp6962
V12sENwECeRSmTeDwyLNqwh47JistZqFmW8
p6963
aV12sENwECeRSmTeDwyLNqwh47JistZqFmW8
p6964
aV1Drt3c8pSdrkyjuBiwVcSSixZwQtMZ3Tew
p6965
atp6966
a(Vcgcardona
p6967
(lp6968
V1Enjoy1C4bYBr3tN4sMKxvvJDqG8NkdR4Z
p6969
aV1SochiWwFFySPjQoi2biVftXn8NRPCSQC
p6970
aV1Enjoy1C4bYBr3tN4sMKxvvJDqG8NkdR4Z
p6971
aV1SochiWwFFySPjQoi2biVftXn8NRPCSQC
p6972
aV1Enjoy1C4bYBr3tN4sMKxvvJDqG8NkdR4Z
p6973
aV1SochiWwFFySPjQoi2biVftXn8NRPCSQC
p6974
aV1Enjoy1C4bYBr3tN4sMKxvvJDqG8NkdR4Z
p6975
aV1SochiWwFFySPjQoi2biVftXn8NRPCSQC
p6976
atp6977
a(VGotRedCandy
p6978
(lp6979
V16cou7Ht6WjTzuFyDBnht9hmvXytg6XdVT
p6980
aV1MGaMaaGym5QRx217kPm8V69y7Qa4sgLC1
p6981
aV168RmnooMNx7EjDQfvz7Q9BUFRXB7CBAzC
p6982
aV1MGaMaaGym5QRx217kPm8V69y7Qa4sgLC1
p6983
aV1PKX3YVFPcBt1mdpUQnJsNHc7BzfQiSu3k
p6984
aV1LNWw6yCxkUmkhArb2Nf2MPw6vG7u5WG7q
p6985
aV1G6o71V3j6d31zeYJhW6qEDgC8hi88r1Cg
p6986
atp6987
a(Vgoxloser
p6988
(lp6989
V1Facb8QnikfPUoo8WVFnyai3e1Hcov9y8T
p6990
aV1CJBqJ3MwUVVNsqXpJx8Aecc3PWxSWPmUc
p6991
aV1Gg9GGQWmRk1pp4vNkMqLaEiPVNdiNvz7E
p6992
aV1LfV1tSt3KNyHpFJnAzrqsLFdeD2EvU1MK
p6993
aV1Ne5bGjDdgmbsGdNK9ocwrQiWf8K1FTuSa
p6994
atp6995
a(Vhuhexchanges
p6996
(lp6997
V1G9BpYzPsDfVTRk3SjqqK97oVk5MSZ52p6
p6998
aV1EBHA1ckUWzNKN7BMfDwGTx6GKEbADUozX
p6999
aV1KiVwxEuGBYavyKrxkLncJt2pQ5YUUQX7f
p7000
aV194DnvmLR2HULRvxUsVag8mn2fm7dA3U2B
p7001
aV1PB4xXUFyy4kSNqroCBVaQuCuw9VcN3be4
p7002
aV18f1yugoAJuXcHAbsuRVLQC9TezJ6iVRLp
p7003
aV1PnMfRF2enSZnR6JSexxBHuQnxG8Vo5FVK
p7004
aV14e7XAZbepQp9MXXzjNG3fNLoAUpaBAXHW
p7005
aV16ZbpCEyVVdqu8VycWR8thUL2Rd9JnjzHt
p7006
aV1G1AndHMczVQYLGfYJzqkDjXrFifpMsTaZ
p7007
aV1AhTjUMztCihiTyA4K6E3QEpobjWLwKhkR
p7008
atp7009
a(VMrStonedOne
p7010
(lp7011
V12Dt147VE1Mk4V6fKiCx4Qe6VQEkNPcbbb
p7012
aV12Dt147VE1Mk4V6fKiCx4Qe6VQEkNPcbbb
p7013
aV1LNWw6yCxkUmkhArb2Nf2MPw6vG7u5WG7q
p7014
aV1LNWw6yCxkUmkhArb2Nf2MPw6vG7u5WG7q
p7015
aV1HyW2xbWSuduyaQ2jM9C4zMG77ehsXXsnj
p7016
aV1HyW2xbWSuduyaQ2jM9C4zMG77ehsXXsnj
p7017
aV1GGowNvH3MWGxodncYMn8zG6nj4cMKmCJt
p7018
aV1GGowNvH3MWGxodncYMn8zG6nj4cMKmCJt
p7019
aV15JiGHpygatkGNz43PF3j2q1VECRA9kiNF
p7020
aV15JiGHpygatkGNz43PF3j2q1VECRA9kiNF
p7021
aV1KDdZiYUSgqCXWSsbMrLYnDGoWf8ouWS6m
p7022
aV1KDdZiYUSgqCXWSsbMrLYnDGoWf8ouWS6m
p7023
aV15pWfjEBmZ9N13s5vxEQA5KMSvtWKhjJvX
p7024
aV15pWfjEBmZ9N13s5vxEQA5KMSvtWKhjJvX
p7025
aV18NGhtqqK7yUZUkdSohYc1tDwTD8fcHLAc
p7026
aV18NGhtqqK7yUZUkdSohYc1tDwTD8fcHLAc
p7027
aV16MBuCHx5Q1JGmN3TTbbssfVSPpUjAv8SF
p7028
aV16MBuCHx5Q1JGmN3TTbbssfVSPpUjAv8SF
p7029
aV1FSoxeLnV5DL74sC2qzdgoWcGPfL4nK4F7
p7030
aV1FSoxeLnV5DL74sC2qzdgoWcGPfL4nK4F7
p7031
aV18s9usoxy3h5j2HAbnpkQYcafAhboo5XHU
p7032
aV18s9usoxy3h5j2HAbnpkQYcafAhboo5XHU
p7033
aV14Z6UibC2ULnXSv6KCbEeDqCvRUcZc7cnG
p7034
aV14Z6UibC2ULnXSv6KCbEeDqCvRUcZc7cnG
p7035
aV1AVnPn6Bd98kWWQTKFvqWedwYMEUXhw6ca
p7036
aV1AVnPn6Bd98kWWQTKFvqWedwYMEUXhw6ca
p7037
aV1Facb8QnikfPUoo8WVFnyai3e1Hcov9y8T
p7038
aV1Facb8QnikfPUoo8WVFnyai3e1Hcov9y8T
p7039
aV13CBtRCwh2j3t3QbSwReNTk9XELrvdHCP7
p7040
aV13CBtRCwh2j3t3QbSwReNTk9XELrvdHCP7
p7041
aV13geEYTfZnmPaEwBZtAL9ypWNg9hND6xC1
p7042
aV13geEYTfZnmPaEwBZtAL9ypWNg9hND6xC1
p7043
aV13UcxXvmrW8WAsEQMmUw1R8eQAwUjuYETv
p7044
aV13UcxXvmrW8WAsEQMmUw1R8eQAwUjuYETv
p7045
aV12FHXC67bVB5hBvDzt8KS59YqkxVWwG5MV
p7046
aV12FHXC67bVB5hBvDzt8KS59YqkxVWwG5MV
p7047
aV16FYVDvPo11rQgb6PtCr62HL6pZhfuGbue
p7048
aV16FYVDvPo11rQgb6PtCr62HL6pZhfuGbue
p7049
aV198UpMgeXgDWTym4j49imyuGWrGZUgDkSW
p7050
aV198UpMgeXgDWTym4j49imyuGWrGZUgDkSW
p7051
aV1fpnRHewHtU5z4AcydCUG3kVvoEjBnjbo
p7052
aV1fpnRHewHtU5z4AcydCUG3kVvoEjBnjbo
p7053
aV1P9BAt2DhyNHTsEZinpse51KfTLqcSjnEU
p7054
aV1P9BAt2DhyNHTsEZinpse51KfTLqcSjnEU
p7055
aV1A6mg8xpwFu2L6poVbqzqHyqPeYDaVG815
p7056
aV1A6mg8xpwFu2L6poVbqzqHyqPeYDaVG815
p7057
aV12e9Sp5eq8CHYMuJ1wSUwf8bffX2uqBEd8
p7058
aV12e9Sp5eq8CHYMuJ1wSUwf8bffX2uqBEd8
p7059
atp7060
a(VCyberSol
p7061
(lp7062
V1Ne5bGjDdgmbsGdNK9ocwrQiWf8K1FTuSa
p7063
atp7064
a(Vaquentin
p7065
(lp7066
V1LNWw6yCxkUmkhArb2Nf2MPw6vG7u5WG7q
p7067
atp7068
a(Vanarcap
p7069
(lp7070
V1Enjoy1C4bYBr3tN4sMKxvvJDqG8NkdR4Z
p7071
atp7072
a(Vprowlinwolf
p7073
(lp7074
V1AgnvUYzwKBnWJNaMVnwxbE2XuBZzeMcZD
p7075
atp7076
a(Vrdymac
p7077
(lp7078
V1Vz1azhnCZv2SptYW9piQkPTF6vsctrmn
p7079
aV1Vz1azhnCZv2SptYW9piQkPTF6vsctrmn
p7080
aV1Vz1azhnCZv2SptYW9piQkPTF6vsctrmn
p7081
atp7082
a(Vsharpshooter789
p7083
(lp7084
V1Drt3c8pSdrkyjuBiwVcSSixZwQtMZ3Tew
p7085
atp7086
a(Veatyourbacon
p7087
(lp7088
V1Drt3c8pSdrkyjuBiwVcSSixZwQtMZ3Tew
p7089
aV1Drt3c8pSdrkyjuBiwVcSSixZwQtMZ3Tew
p7090
aV1AHvxx56Hb9d1HMJyyBhXT2w8yVJidiEnm
p7091
aV1Pp8X4LCwj6k1yZmK8KwpuNNz4d2xJodJR
p7092
aV1Kub4vCtNUv3sM8buh74ef6k2Jo95fySGa
p7093
aV1AbN7ZmzDyuQ4U4Cymo2g5Sttf1kWpWxAj
p7094
aV1JkVyvrfFqVnVaQooTtJWufx8pxnP3vMTT
p7095
aV1Lm4q3JNMJ8VbLBJ62L49mGusWtzNDqoEt
p7096
atp7097
a(Vdarbsllim
p7098
(lp7099
V1Drt3c8pSdrkyjuBiwVcSSixZwQtMZ3Tew
p7100
aV1Drt3c8pSdrkyjuBiwVcSSixZwQtMZ3Tew
p7101
aV14o7zMMUJkG6De24r3JkJ6USgChq7iWF86
p7102
atp7103
a(Vwijnandjr
p7104
(lp7105
V1A1aRKyMPRCdQpw67tXR42i4hXCMq1xbvy
p7106
atp7107
a(Vbtcevictim
p7108
(lp7109
V1dice97ECuByXAvqXpaYzSaQuPVvrtmz6
p7110
aV1dice97ECuByXAvqXpaYzSaQuPVvrtmz6
p7111
aV1KEcUnTWpV5GefRtGgij7FVHwkULWCoM4G
p7112
atp7113
a(VnissoPT
p7114
(lp7115
V1CUpADyA9qdJL6mxvQS7BLhCCmxxmZCePv
p7116
atp7117
a(Vmarcoski711
p7118
(lp7119
V1NUUpZNLHU5FaMSgDG9VCvZaJNfPjtELAp
p7120
atp7121
a(Vprincecapper
p7122
(lp7123
V17yJ8Cw5nPfcwYqKcMyro7N3dexPdH5VCf
p7124
atp7125
a(VC41n
p7126
(lp7127
V15xuksghSc8aPRBzTSYTs81uFjS4NBbvF1
p7128
aV15xuksghSc8aPRBzTSYTs81uFjS4NBbvF1
p7129
aV15xuksghSc8aPRBzTSYTs81uFjS4NBbvF1
p7130
aV15xuksghSc8aPRBzTSYTs81uFjS4NBbvF1
p7131
aV15xuksghSc8aPRBzTSYTs81uFjS4NBbvF1
p7132
atp7133
a(VGodfreee
p7134
(lp7135
V13ds3qLAVbZLrxt5YbH8WN8Z4o3aN91mTT
p7136
atp7137
a(Vgabet123
p7138
(lp7139
V15B4pLyLV9qYhdiq7vaL2XFJYs8gtFn4q3
p7140
atp7141
a(Vratioxz
p7142
(lp7143
V1PC61wrhoT6NF6DXMJqmUwmmLWUuP89x8k
p7144
atp7145
a(Vbetweenmirages
p7146
(lp7147
V1MRdGVAQKQfHgUeJfdFdHmKGr5NkRLj8PW
p7148
atp7149
a(Vbitcoinplayspokemon
p7150
(lp7151
V1PokeL8UCcU7Q6VyDTvX5CQ2enrdtA8HSW
p7152
aV1PokeRpdouedsHwo3J8y7iphbGxMtT5UPu
p7153
aV1PokeUtrRLa6WyGQfw7M2r2LBUH4SH4aRJ
p7154
aV1PokeDhzN1Agx14LG5fQeQPNpexNdNzrdo
p7155
aV1PokeAtqJiY1ygohYFFBs3jbombPnYjvr
p7156
aV1PokeB8Whoc5jkpYVP3u4mooFYWenEp6g9
p7157
aV1PokeSgyUHWcKEBfCnyRwue2G6sgcLWmCE
p7158
atp7159
a(Vjacobh17
p7160
(lp7161
V1PJLhf6g5XxcY9nrMTeNbVdz2wYQEnNqdX
p7162
atp7163
a(VLocalizedNegentropy
p7164
(lp7165
V1M5tVTtynuqiS7Goq8hbh5UBcxLaa5XQb8
p7166
atp7167
a(VNoveltyLab
p7168
(lp7169
V16rzCyueUHZFUJLFuFAieC4LS8cgpk7fAt
p7170
atp7171
a(VJachoshi
p7172
(lp7173
V1J4yuJFqozxLWTvnExR4Xxe9W4B89kaukY
p7174
atp7175
a(Vlurker_derp
p7176
(lp7177
V1DR36emexhW21FFeDJhfKFEoSCdmri3kE4
p7178
aV1DR36emexhW21FFeDJhfKFEoSCdmri3kE4
p7179
atp7180
a(Vrebbitbitcon
p7181
(lp7182
V16KaCJB7fVuT6hvA7wzgzVjAnHz28bNvvh
p7183
atp7184
a(Vbritreddit
p7185
(lp7186
V1CHdMbfmDNYUquXkiAc3nztPDNxMp53FZE
p7187
atp7188
a(Vwalterwitt
p7189
(lp7190
V1MogMwRGc3vBvSvscwqwhSiTHah1fnTUAG
p7191
atp7192
a(Vpimpingken
p7193
(lp7194
V1EUGDmevHDANgVMUAg8JaqPMwu6tygUg1
p7195
aV1EUGDmevHDANgVMUAg8JaqPMwu6tygUg1
p7196
aV1EUGDmevHDANgVMUAg8JaqPMwu6tygUg1
p7197
aV1EUGDmevHDANgVMUAg8JaqPMwu6tygUg1
p7198
aV1EUGDmevHDANgVMUAg8JaqPMwu6tygUg1
p7199
aV1EUGDmevHDANgVMUAg8JaqPMwu6tygUg1
p7200
aV13FeTCqHL62WxStSzDGWfHTpaeTduT6Dor
p7201
atp7202
a(Vrizzn
p7203
(lp7204
V1FartsVaXCqT8MAJxAjTwrfz3UAXqVKbCh
p7205
aV1JMPsVyyCrLt8xRSiBypG6JKawsUVTGjKy
p7206
atp7207
a(Vfretfriendly
p7208
(lp7209
V1Vz1azhnCZv2SptYW9piQkPTF6vsctrmn
p7210
aV1Vz1azhnCZv2SptYW9piQkPTF6vsctrmn
p7211
atp7212
a(VJamboRambo
p7213
(lp7214
V1BvyqA9Mxpra4Y86EZuGcQw9RgJtG4aHic
p7215
atp7216
a(Vcreditcardssuckk
p7217
(lp7218
V1HdAohRKJ5i1nMbZeuTH2VJgVByofD0
p7219
atp7220
a(VBostonGahden
p7221
(lp7222
V1G6nVfHy6jBMjyXwPwWHoAfnmx123WeKQD
p7223
atp7224
a(VI_POTATO_PEOPLE
p7225
(lp7226
V1Facb8QnikfPUoo8WVFnyai3e1Hcov9y8T
p7227
aV1Facb8QnikfPUoo8WVFnyai3e1Hcov9y8T
p7228
atp7229
a(Vconfusedbtc
p7230
(lp7231
V1AJsu9hJCVbx9BpoBsPoZBkFBxyXYPGM2B
p7232
atp7233
a(VMig__
p7234
(lp7235
V12TAvk1fQYrp5v2JosSmFKpGGeNFHt49qn
p7236
atp7237
a(Vavatarname
p7238
(lp7239
V1CounterpartyXXXXXXXXXXXXXXXUWLpVr
p7240
atp7241
a(VDontBeStupidLikeMe
p7242
(lp7243
V17cHzgxRLumqfu6UAddUrJmTujd7goHLrx
p7244
aV1BAKHq37qj1xekitr7adXapLqFrVtAhm8A
p7245
aV1KLug6D1mXoyS12BZipyQ8WHAdNzDmQxMp
p7246
atp7247
a(Vbucuyy
p7248
(lp7249
V18fGtvCmR9RRWg2dnvjPkG8vC3iUtuThup
p7250
atp7251
a(Vlookoutnoob
p7252
(lp7253
V16yJTFDefLyE41HCfUtUbXtXDTQtbLQxuo
p7254
atp7255
a(Vrogerjobinson
p7256
(lp7257
V1GfN66sZMuw2g2of6iUh9TtrrpHiTLsrkb
p7258
atp7259
a(VThePiachu
p7260
(lp7261
V1PiachuEVn6sh52Ez7o6Fymvw54qvQ4RBm
p7262
atp7263
a(VRidiculousNick27
p7264
(lp7265
V15mzL9EBxzb4BwuWeKHYw9SiToBPDgpeg2
p7266
aV1JHJzqdnZmBFkyrBpN1kA3tSWotSS1qYDb
p7267
aV1JHJzqdnZmBFkyrBpN1kA3tSWotSS1qYDb
p7268
aV1M93kXpTFcWEYmEW23Z1cyamgPsbKs95zJ
p7269
aV19fM4yprkasAuS68N7vw8ZeHnTJqddWKEV
p7270
aV1Af4S2U6Fn9b5wdi72f82x4YQ4DgWta4TD
p7271
aV16ZLDzgeiP7zehRxojFNkuxJ4LHLx3YN5K
p7272
aV1FYu95rQhoJgv67HJFN92WJxsNVpxjq37C
p7273
aV1DmeckFBLXSrX7gbHFTmYVFURfJ2naWvXi
p7274
aV1Bmxqi1jmJeS1vuZbJgTPDzCLDZ2jKDWsW
p7275
aV1C2kT1fZJ7Uycz95ruaDPR55ksphRmLuDb
p7276
aV1CH9ymA8gEPJu6mGuGMy3vsyerd1GksKQE
p7277
aV1HTUHwmKctXZB4xCzsz81ymPxTYZ75CX1i
p7278
aV16qfxTN2wLmq4e9HMqaeQzfpCABaWMqmkR
p7279
aV1C6Dcb8W2DkxVCimXk9KtCcc2zESSxu3EX
p7280
aV1DrsQBzw5eXpf8QMo5f6PoT2XZ9Pey6Du6
p7281
aV1DiqH2xdqwq7ddS6TDCxiAKaZ57zu5Hi66
p7282
aV1SDmqEDaWKBgtJE3CutMjjZvhLPmRYf7z
p7283
aV1KjDHbEpa92tygdnb72JtirhUoLt64QgnF
p7284
aV17x3Gvhwr5CYGMHurxr9QnTxvDRmbF9BkQ
p7285
aV1N1WrKzzsrRUSyCfjkUpQCojSE4ZDUHhEE
p7286
aV15za1RrP4gcmA3sbnS3SBK8f6bUfLQL2a5
p7287
atp7288
a(Vjoae1975
p7289
(lp7290
V19jcvAMdZvFJcrDzzvox6pjQK9fHSqfhMw
p7291
aV1GTupfbRa9P4mUtZvjU1sAUkXGsedDQKQX
p7292
atp7293
a(Vzooitjezooitje
p7294
(lp7295
V1SochiWwFFySPjQoi2biVftXn8NRPCSQC
p7296
atp7297
a(Vtothemoon111
p7298
(lp7299
V1NwKxTBrqrfa1YFLB44gyJEj2GanZ2qtDK
p7300
atp7301
a(VMorbidArchangel
p7302
(lp7303
V1HV4pnVHwJfqGq72wyXVLATAxNM7bmBXq7
p7304
atp7305
a(Vgmac3001
p7306
(lp7307
V1SochiWwFFySPjQoi2biVftXn8NRPCSQC
p7308
atp7309
a(Vbruce_fenton
p7310
(lp7311
V1HKdoMuF6vcd1BsXwCiZKoGzWtm7g3XCCr
p7312
atp7313
a(Vjoae1975
p7314
(lp7315
V19jcvAMdZvFJcrDzzvox6pjQK9fHSqfhMw
p7316
atp7317
a(VRepostDepot
p7318
(lp7319
V1FLAfRsuQmPUzdM9yWEqPLNAKPcGJ17cX5
p7320
atp7321
a(VSteveMcBean
p7322
(lp7323
V1SochiWwFFySPjQoi2biVftXn8NRPCSQC
p7324
atp7325
a(VFranklinFuckinMint
p7326
(lp7327
V1SochiWwFFySPjQoi2biVftXn8NRPCSQC
p7328
aV1Enjoy1C4bYBr3tN4sMKxvvJDqG8NkdR4Z
p7329
atp7330
a(VChimboy
p7331
(lp7332
V1A1YXLD6CrbgqeifXeJsUx4ixYpbRMwTLb
p7333
atp7334
a(VVapor114
p7335
(lp7336
V1HCoiLhr4rjE9hLkX39KMC3YMYEjWNni34
p7337
atp7338
a(Vjustmaan
p7339
(lp7340
V17ymgNz4sVfZ2tLsiLZpQxtCTS487y25sJ
p7341
atp7342
a(Vanonboxis
p7343
(lp7344
V12W3N4Z8CEbq6soEXyVba7KdkcGcqYfRVu
p7345
aV12W3N4Z8CEbq6soEXyVba7KdkcGcqYfRVu
p7346
atp7347
a(Vobiefernandez
p7348
(lp7349
V1SochiWwFFySPjQoi2biVftXn8NRPCSQC
p7350
atp7351
a(VMhahollifield
p7352
(lp7353
V1bWyMKfhx4soXFyy8p2QLqKSp87SHxSe4
p7354
atp7355
a(VBTtje
p7356
(lp7357
V1C4bYBr3tN4sMKxvvJDqG8NkdR4Z
p7358
atp7359
a(Vldrapeau
p7360
(lp7361
V1RachKrFtYXANPx5DRCcU8USDu3GsprzN
p7362
atp7363
a(Vduetschpire
p7364
(lp7365
V1EqzzdcMi25HjhLdZUMZh2ER9TQs7ZJrYq
p7366
aV1DuYqSNL3c7mwQNoDGHL2heFvK1Qh4R4jG
p7367
aV1DuYqSNL3c7mwQNoDGHL2heFvK1Qh4R4jG
p7368
aV1fxApMamCQFqEZ5as2CF2GQY5bft7GHiM
p7369
atp7370
a(Vsatoshicc
p7371
(lp7372
V1Enjoy1C4bYBr3tN4sMKxvvJDqG8NkdR4Z
p7373
aV1Enjoy1C4bYBr3tN4sMKxvvJDqG8NkdR4Z
p7374
atp7375
a(Vimrehg
p7376
(lp7377
V1C4bYBr3tN4sMKxvvJDqG8NkdR4Z
p7378
atp7379
a(Vmagicalbroomstick
p7380
(lp7381
V17su2UokpxZEXBLqnZXVSBWEJaKV4mYtRP
p7382
aV1DHEnh9gYL5iwQBTBtSp8o5kWiWEdUArxV
p7383
atp7384
a(VRaIllIn
p7385
(lp7386
V1Enjoy1C4bYBr3tN4sMKxvvJDqG8NkdR4Z
p7387
aV1SochiWwFFySPjQoi2biVftXn8NRPCSQC
p7388
atp7389
a(Vjoss4257
p7390
(lp7391
V1SochiWwFFySPjQoi2biVftXn8NRPCSQC
p7392
atp7393
a(VJungleReaver
p7394
(lp7395
V1Enjoy1C4bYBr3tN4sMKxvvJDqG8NkdR4Z
p7396
aV1SochiWwFFySPjQoi2biVftXn8NRPCSQC
p7397
atp7398
a(Vbtcsa
p7399
(lp7400
V1SochiWwFFySPjQoi2biVftXn8NRPCSQC
p7401
atp7402
a(VCareerBitcoiner
p7403
(lp7404
V1JAd2euqWzivvdmohqdXFj162QczczeNVw
p7405
aV1ATp6exkZnBNMgBJ63h4tdjDd9LbLpNd4o
p7406
atp7407
a(Vdbto
p7408
(lp7409
V1SochiWwFFySPjQoi2biVftXn8NRPCSQC
p7410
atp7411
a(Vlovebitcoin
p7412
(lp7413
V1Ma3tZCrG5DoGr3ehei9iaM9j4Chw1sCe7
p7414
atp7415
a(VCareerBitcoiner
p7416
(lp7417
V1BiB11v38ENSMpGQzigtJYeM8Rjgt2vR5A
p7418
aV1BiB11v38ENSMpGQzigtJYeM8Rjgt2vR5A
p7419
atp7420
a(Vweno66
p7421
(lp7422
V1FYFb8zw5LGYH6u88zouApEJ7zsWQJ3kZi
p7423
atp7424
a(Vslightly_OCD
p7425
(lp7426
V1Punt1qtZieMwQkG3bUviLH6yPMv8QxAsX
p7427
aV17niPDkoLAmr7iG2z3dbTzBietq8s9Bfon
p7428
atp7429
a(VJasonBored
p7430
(lp7431
V1MUjMagjPKb9oHn3jsKv1KWPtApHF6ESBG
p7432
aV145Cjg69aRSpCYwdfPGTXUCzWqCPRu6s3k
p7433
atp7434
a(VChytrik
p7435
(lp7436
V1Nnyftfkptb9pvpH8cy1PgnSbNmsCKg6zR
p7437
atp7438
a(VGnormez
p7439
(lp7440
V1BqVTgMz9x42g8weeSqqiryug7NE46YXTb
p7441
atp7442
a(Vallinfinite
p7443
(lp7444
V1NkzRYkPWvz63wuLVAjb2wC6xTVQJjhNW
p7445
atp7446
a(Vnoculation
p7447
(lp7448
V1PuPn9kVrBx5kFGoWbc58CEo7s4XQd1jgu
p7449
atp7450
a(Vchibi-totoro
p7451
(lp7452
V1SochiWwFFySPjQoi2biVftXn8NRPCSQC
p7453
aV1Enjoy1C4bYBr3tN4sMKxvvJDqG8NkdR4Z
p7454
atp7455
a(Vfretfriendly
p7456
(lp7457
V12DSWQJxsza2uiWz2SCrbAvSyYoagUYEJP
p7458
atp7459
a(Vwhodkne
p7460
(lp7461
V1JE5rMaF7Sw6HuPL2QU8tGdw4P5AnQatEg
p7462
atp7463
a(Vtomatocoin
p7464
(lp7465
V1KDxugnWc9Cqw831UyMn7jzFnerRodHvBu
p7466
atp7467
a(Vbizitmap
p7468
(lp7469
V1Dppo7cT8jAiTp1K8A7jgwaN4Fft8KxVrk
p7470
atp7471
a(Vcloudcoinr
p7472
(lp7473
V19ZEhBMWtsntY4Kc8wPAkYfekYgCvJVh4Q
p7474
atp7475
a(VQuiteOne
p7476
(lp7477
V17RGedAtdPdyDXtZ6EsFqM4EW4iDAKLYZ8
p7478
atp7479
a(VLuoboTiX
p7480
(lp7481
V19hrCF1rj257wKEHY1UKkum8D4j76muBbq
p7482
aV19hrCF1rj257wKEHY1UKkum8D4j76muBbq
p7483
atp7484
a(VSparrow-Sean
p7485
(lp7486
V1H1pcBmQewbvRgUHqSdY9y6UYhRnmN44wN
p7487
aV1LTfPacEF2AiES3pFQpk88TFBkbz9Ph7vX
p7488
atp7489
a(Vfesnavarro
p7490
(lp7491
V17HGB6afdN1EqBaVCAhMiQKo6GZ8G7Bn5w
p7492
aV17HGB6afdN1EqBaVCAhMiQKo6GZ8G7Bn5w
p7493
aV17HGB6afdN1EqBaVCAhMiQKo6GZ8G7Bn5w
p7494
aV17HGB6afdN1EqBaVCAhMiQKo6GZ8G7Bn5w
p7495
aV17HGB6afdN1EqBaVCAhMiQKo6GZ8G7Bn5w
p7496
aV17HGB6afdN1EqBaVCAhMiQKo6GZ8G7Bn5w
p7497
aV17HGB6afdN1EqBaVCAhMiQKo6GZ8G7Bn5w
p7498
aV17HGB6afdN1EqBaVCAhMiQKo6GZ8G7Bn5w
p7499
atp7500
a(Vphantomiiii
p7501
(lp7502
V1DiHDQMPFu4p84rkLn6Majj2LCZZZRQUaa
p7503
aV1DiHDQMPFu4p84rkLn6Majj2LCZZZRQUaa
p7504
atp7505
a(Vbtcabc
p7506
(lp7507
V1EE1Dswmf11di3cCj2jJr9CD4sUWDXoVry
p7508
atp7509
a(VGus_Fartened
p7510
(lp7511
V1G3Vyq3YPZ4SM1ei3pw5peV5TMoZeUUbP1
p7512
atp7513
a(VJasonBored
p7514
(lp7515
V1MUjMagjPKb9oHn3jsKv1KWPtApHF6ESBG
p7516
aV1MUjMagjPKb9oHn3jsKv1KWPtApHF6ESBG
p7517
atp7518
a(Vfairlay
p7519
(lp7520
V1HB5XMLmzFVj8ALj6mfBsbifRoD4miY36v
p7521
atp7522
a(Vbackpackbits
p7523
(lp7524
V1G3Hi8kXbNKriLtPyyDNMBwQKDpsiTtdzG
p7525
atp7526
a(Vabsurdparadox
p7527
(lp7528
V1MVVBkihz7X3Dkvy9LPAEtMxmvALoSW4y7
p7529
atp7530
a(Vcyaneyes
p7531
(lp7532
V13LZuNMLquC2xMkMLGycDVL8pAdfVWdMa6
p7533
aV13VJ3oaU4fP7Gws1LjfUghdBPUx5icbF6T
p7534
atp7535
a(VThePiachu
p7536
(lp7537
V174L4UaMHGcgfRWcapZTg2QAiLFcug5jvf
p7538
aV174L4UaMHGcgfRWcapZTg2QAiLFcug5jvf
p7539
atp7540
a(Vgeneralseven
p7541
(lp7542
V1GQEZwtdRnkzZCQNFZ3QiFgqqwbWAsfcPh
p7543
atp7544
a(Vruneks
p7545
(lp7546
V127RhimPZWepxjzjGSsVc4yiNooy74yUAy
p7547
atp7548
a(VEconHacker
p7549
(lp7550
V1Facb8QnikfPUoo8WVFnyai3e1Hcov9y8T
p7551
aV1Facb8QnikfPUoo8WVFnyai3e1Hcov9y8T
p7552
atp7553
a(Valsomahler
p7554
(lp7555
V16vSNFP5Acsa6RBbjEA7QYCCRDRGXRFH4m
p7556
atp7557
a(Vskydiveguy
p7558
(lp7559
V1Facb8QnikfPUoo8WVFnyai3e1Hcov9y8T
p7560
atp7561
a(Vfesnavarro
p7562
(lp7563
V17HGB6afdN1EqBaVCAhMiQKo6GZ8G7Bn5w
p7564
aV17HGB6afdN1EqBaVCAhMiQKo6GZ8G7Bn5w
p7565
aV17HGB6afdN1EqBaVCAhMiQKo6GZ8G7Bn5w
p7566
aV17HGB6afdN1EqBaVCAhMiQKo6GZ8G7Bn5w
p7567
atp7568
a(Vmickmon
p7569
(lp7570
V14KZEDZNNJFya7XabX4xzGq116KnMufu7C
p7571
atp7572
a(ViWeyerd
p7573
(lp7574
V1BKrS757pFbDGKoRUDDN7pzRKkXkwxt8Qm
p7575
atp7576
a(Vhildenborg
p7577
(lp7578
V12NepQavaJzr77LgHv6H3y7xjFyDCpL41c
p7579
atp7580
a(ViWeyerd
p7581
(lp7582
V1BKrS757pFbDGKoRUDDN7pzRKkXkwxt8Qm
p7583
atp7584
a(VNoahFect
p7585
(lp7586
V1PWHGiCHAtSN5Sn89rT77X29i9YPqh9aoX
p7587
atp7588
a(Vpikadrew
p7589
(lp7590
V1N5nW1eH8zRBbxdBse8RHR7nAtXCQW5STq
p7591
atp7592
a(VTheOskarshoe
p7593
(lp7594
V1EfzNRhFhTNxLtygX8X4FXf2uncFaoCeB
p7595
atp7596
a(Vthecoinjournal
p7597
(lp7598
V1AaJeHfULVf6b4V366DVKYQSpe2YMvxZ2g
p7599
atp7600
a(Viflyplanes
p7601
(lp7602
V1BYsmmrrfTQ1qm7KcrSLxnX7SaKQREPYFP
p7603
atp7604
a(Vstarslab
p7605
(lp7606
V31uEbMgunupShBVTewXjtqbBv5MndwfXhb
p7607
atp7608
a(Vmanuevans
p7609
(lp7610
V1BdcBn6Hri5va5RhX2bgqfaRK1TxaZ4ZYm
p7611
atp7612
a(VEconHacker
p7613
(lp7614
V1BWeuWdgjrP8PFAwBwgwU9BUqJNewScouy
p7615
aV15z6y1rc2C3J9FFk3yP6gPLKM65Skr3Ymu
p7616
aV15z6y1rc2C3J9FFk3yP6gPLKM65Skr3Ymu
p7617
aV1Facb8QnikfPUoo8WVFnyai3e1Hcov9y8T
p7618
aV1Facb8QnikfPUoo8WVFnyai3e1Hcov9y8T
p7619
atp7620
a(VBitvapors
p7621
(lp7622
V1GSUZXFbhSCwfMKSwPzztpXKXUZ8qELgHs
p7623
aV1JkKn478ivR6iux2pUCjsvqhguPywP3dFH
p7624
atp7625
a(Veinarkuusk
p7626
(lp7627
V1EfzNRhFhTNxLtygX8X4FXf2uncFaoCeB
p7628
atp7629
a(Vtwobitidiot
p7630
(lp7631
V151RFDQNQkJCjjGQ4ASudY6yyWBVnY8Ngi
p7632
atp7633
a(VFruitWinder
p7634
(lp7635
V15944V31kxR2mPfdwCdaQNjrzaUQh4qNFp
p7636
atp7637
a(Vgabridome
p7638
(lp7639
V1AADG28dqWv8kFc6YGqZ46Xc3F7N5tK1Ce
p7640
aV1AADG28dqWv8kFc6YGqZ46Xc3F7N5tK1Ce
p7641
aV1AADG28dqWv8kFc6YGqZ46Xc3F7N5tK1Ce
p7642
atp7643
a(VShinkei
p7644
(lp7645
V1Drt3c8pSdrkyjuBiwVcSSixZwQtMZ3Tew
p7646
atp7647
a(VWhidbeyIslandShibe
p7648
(lp7649
V1HDt5hfxYg9KathZcNz9B2QRGic8aeDUte
p7650
atp7651
a(Vlesliebrooks777
p7652
(lp7653
V1672Ca5QorEKCY2BwzKEEiuaw4w5D9i5ba
p7654
atp7655
a(VStudentoftheWorld
p7656
(lp7657
V172bPT8vetHr8hywrdKP9rFTTv4fySczwp
p7658
atp7659
a(Vtwobitidiot
p7660
(lp7661
V151RFDQNQkJCjjGQ4ASudY6yyWBVnY8Ngi
p7662
aV151RFDQNQkJCjjGQ4ASudY6yyWBVnY8Ngi
p7663
atp7664
a(VbtcRevolt
p7665
(lp7666
V1B5MJfFdehwCNJxjmiiTrNS4JUFvYVdNCL
p7667
atp7668
a(VSamatricurium
p7669
(lp7670
V1EUzP95x12p4MtHXakHwbd8wSKDwjVC1aW
p7671
atp7672
a(Vgrabbertdi
p7673
(lp7674
V19EQn8TFHUfryDmsMxEGP1SCNow9ktZonu
p7675
atp7676
a(Vtomatocoin
p7677
(lp7678
V1KDxugnWc9Cqw831UyMn7jzFnerRodHvBu
p7679
atp7680
a(Vimrehg
p7681
(lp7682
V17NWCFWo8EvFp7vtkbRH6ec3DEdxZhrhrd
p7683
atp7684
a(VRassah
p7685
(lp7686
V1CmKN87y4GmA8Mh9Vo3AMsuNmo7g7vPjmU
p7687
atp7688
a(Vanthonykantara
p7689
(lp7690
V1DS3NRojxTfd5VPEcGAu5K4gzX7kG6pkSp
p7691
atp7692
a(Vanthonykantara
p7693
(lp7694
V1DS3NRojxTfd5VPEcGAu5K4gzX7kG6pkSp
p7695
atp7696
a(Vanthonykantara
p7697
(lp7698
V1DS3NRojxTfd5VPEcGAu5K4gzX7kG6pkSp
p7699
atp7700
a(Vrgnet1
p7701
(lp7702
V1BitcoiNxkUPcTFxwMqxhRiPEiQRzYskf6
p7703
atp7704
a(Vdannydshag
p7705
(lp7706
V1E8vbdGCCJdSuT6dM221m4zKbogRfpBxth
p7707
atp7708
a(VPaperNickL
p7709
(lp7710
V1BM6z5Z3aWhw6jeBuKVTkXG7DdchNzvpEi
p7711
atp7712
a(Vanthonykantara
p7713
(lp7714
V1DS3NRojxTfd5VPEcGAu5K4gzX7kG6pkSp
p7715
atp7716
a(Vgiszmo
p7717
(lp7718
V1tip7grjMG8yHN3qM1nrVKmrn6WdTdkoP
p7719
aV1tip7grjMG8yHN3qM1nrVKmrn6WdTdkoP
p7720
atp7721
a(Vcylon56
p7722
(lp7723
V1KdV6AZajoEcM6fe3AsbeZo5hEutmF8vG
p7724
atp7725
a(Vuab_lca
p7726
(lp7727
V1GzCSSEtwiXyTPiLpjZEmZkaWJygPhwu2v
p7728
atp7729
a(Vglittergates
p7730
(lp7731
V1CzWuTt1HUjLLmNtw3iyE8nKzacejZiVQi
p7732
atp7733
a(Vtrevor333
p7734
(lp7735
V1N23WzD9Ksin3zPSh3MGbX8ASF1jrFuP7g
p7736
atp7737
a(Vataranlen
p7738
(lp7739
V16oicUPgw2dMZAp6ETqWJppLJMsGJnpGZ2
p7740
atp7741
a(Vmedic1597
p7742
(lp7743
V1K2AVMNe5BA5VGGxXnKESWpLF65HXpA5GT
p7744
atp7745
a(Vbitcointhrowaway_
p7746
(lp7747
V18HZsitYckcGtgmv3ttdMdpujSs766WrG7
p7748
atp7749
a(Vbaillou2
p7750
(lp7751
V127RhimPZWepxjzjGSsVc4yiNooy74yUAy
p7752
aV1JwSSubhmg6iPtRjtyqhUYYH7bZg3Lfy1T
p7753
atp7754
a(VIsThisYourMoney
p7755
(lp7756
V1EHZheAbjwcBESzTcS2E9Nb3Q6afx32zE4
p7757
atp7758
a(Vrandy-lawnmole
p7759
(lp7760
V16em2NvJqniJXcP9pPmcXtuKq4LQ1iJNTR
p7761
atp7762
a(ViRemainSatoshi
p7763
(lp7764
V1EwCg7FmWdBbRp4mn5GfxQNT1hzp9WgkD
p7765
atp7766
a(Vthrowaway17827187
p7767
(lp7768
V1M72Sfpbz1BPpXFHz9m3CdqATR44Jvaydd
p7769
atp7770
a(Vcciliberto33
p7771
(lp7772
V1BzwQiworuvRo7VhwVBAuQQxyY9qKCZpCg
p7773
atp7774
a(Vduncwaj
p7775
(lp7776
V1FCZzLuH1MAa8UDaHnZKHnXmNcQRBA7Xme
p7777
atp7778
a(Vtim_iles
p7779
(lp7780
V1FfmbHfnpaZjKFvyi1okTjJJusN455paPH
p7781
atp7782
a(Vbentzi
p7783
(lp7784
V1BPC9Gt5V7b7oyaUaCMQnje1FwkM4QFwq3
p7785
atp7786
a(VNazzus
p7787
(lp7788
V1GqBM23EakhaZh3WD3rUcynW8xFvF1Gvsp
p7789
atp7790
a(Vmatthew_boyd
p7791
(lp7792
V1CCvVXqGiuN5fHv1fGXCqUxZwJawAqF3Nt
p7793
atp7794
a(Vfindingasong
p7795
(lp7796
V1FwKD87WB4adYiK5YHWhV18CXYLorBZyCz
p7797
aV18dEALptohpopRCo2VYTxMVcF4xk7yKpMh
p7798
atp7799
a(Vbogedy
p7800
(lp7801
V15XsLZBNG6MC8p59XTbUhmcthKNTnb84Ez
p7802
atp7803
a(Vmkalajian
p7804
(lp7805
V12zEQoozpKCWLVfwxusiLEKLPVQ7mQNAnZ
p7806
atp7807
a(Vmatthew_boyd
p7808
(lp7809
V1CCvVXqGiuN5fHv1fGXCqUxZwJawAqF3Nt
p7810
atp7811
a(Vrpgsuz
p7812
(lp7813
V1HdNsyifnooHRHnEbVFQTRqGa8rzhLfUvo
p7814
atp7815
a(Vredwhitesnow
p7816
(lp7817
V177w3nqK9ZJREnc33oK1LTYAhPFXTBkn8k
p7818
atp7819
a(Vtucoslice
p7820
(lp7821
V1JakeKnCJMDfQhPMgcstYaYVSGsYWQWMvr
p7822
aV1JakeKnCa5JBVEi2PUpaZohaLyXABFD1J9
p7823
aV1JakeFuRYctZMCSndGAhuYRJiNG55489LT
p7824
aV1LwtP2hLbohZawwEtCBTXv26Ro7vFvYxAu
p7825
aV1D5D3Pe8Yx7qhF3HdeHkfiFNvzqzzuEwAd
p7826
atp7827
a(Vpain_perdu
p7828
(lp7829
V1HRETbGbfgfAjxCqNggW7mZGNJTQhMXfQc
p7830
atp7831
a(Vgoodusersnamesargon
p7832
(lp7833
V1G9x8VJuNhnZQJMYWs25EPY1ZpJTryWE5R
p7834
atp7835
a(Vscriib
p7836
(lp7837
V320f7294ce41a78808146dc1129a45c7
p7838
aV1f7c8a5d11adbe8828d595f0987ecca6
p7839
atp7840
a(Vbitcoinswerestolen
p7841
(lp7842
V1Ak6GfE73zZrcg6vWH8Y4JHzEyQ5TwrNwU
p7843
atp7844
a(VOswegoFIRST
p7845
(lp7846
V1BMWiBjS1xeAiwrR5ytoqPgmPg3urnJKf7
p7847
atp7848
a(Vpersianshoes
p7849
(lp7850
V1JitSYdpz1mqzxz8ZsyBe5CH7cBmXBKHQv
p7851
atp7852
a(Vspinnerman
p7853
(lp7854
V14HMzd11xjWxfaJVYRDJNFtzPfiFv3HFCF
p7855
atp7856
a(VAJMiles
p7857
(lp7858
V1L5FnCCRsQPBcecHmGuHvVvv1SyqBkTj8p
p7859
atp7860
a(VTerreCiel
p7861
(lp7862
V1Gx9FCknxSsLfFDzFdn75Xgqx95sDp38ir
p7863
atp7864
a(V7x5x3x2x2
p7865
(lp7866
V12b2UFoNysohKpx1DxaHNUCJowTDm7wesx
p7867
atp7868
a(Vsolanoid_
p7869
(lp7870
V16AXtZAQ6GmTEqf9TEfYRLyxo3qtPDajnq
p7871
atp7872
a(Vpakojunior
p7873
(lp7874
V12b1DiJs7FpzGHtjhPnpZBfK6Tn9LvWrVv
p7875
atp7876
a(VMdubin
p7877
(lp7878
V1DUQVcT6PekZaSLQLtQxEZunaEyTuxMWxu
p7879
aV1DPoUd4jfco8skXmDHsyJExmiR24feVhRt
p7880
aV1DUQVcT6PekZaSLQLtQxEZunaEyTuxMWxu
p7881
aV1DPoUd4jfco8skXmDHsyJExmiR24feVhRt
p7882
atp7883
a(Vjkandah
p7884
(lp7885
V19dDmyQYbY3rpf2PmJEwGfXGKtBBAkiFjT
p7886
atp7887
a(VlegalizeCali
p7888
(lp7889
V1FaWaRrvME1jm5C56eytyz5MhYcmvxZYSH
p7890
atp7891
a(Vnewretro
p7892
(lp7893
V1E1ppQabUCsJekEJaXv74TwKnGfJ2YJANX
p7894
aV13TEX8Zfj2bvY7RXYy6TaxFHCZc4R5Ha8M
p7895
atp7896
a(Vtinygiraffe21
p7897
(lp7898
V14i8vS4if7L1cZc3Cxm6Cy94VYr2f8KKk2
p7899
aV14i8vS4if7L1cZc3Cxm6Cy94VYr2f8KKk2
p7900
atp7901
a(Vmonodromos
p7902
(lp7903
V15RUW9CYZMX8pEUMBKuWW19kLBdARudqKg
p7904
atp7905
a(Vbassjoe
p7906
(lp7907
V16KaCJB7fVuT6hvA7wzgzVjAnHz28bNvvh
p7908
atp7909
a(Vjonstern
p7910
(lp7911
V1N8zMwjtY6u51TpgxDfHQebJjDQzDTWz8L
p7912
atp7913
a(Vandre2099
p7914
(lp7915
V1EUwTds87Trd6cPVsp38AbXmKyroNpzXXs
p7916
atp7917
a(VBitcoinMusic
p7918
(lp7919
V1NTc71v8Pwas8cmM9kiWwr8KAuuwGRctPq
p7920
atp7921
a(VWonderRico
p7922
(lp7923
V1DCc3JLNctY7hKDLEhGu95P3oYz83wrtiu
p7924
atp7925
a(Vtinst4r
p7926
(lp7927
V18ud75oTZGrrSQL7YP7ocesgmpnktFruif
p7928
atp7929
a(Vkukkuzejt
p7930
(lp7931
V13cJyLk1yQiJvQqWsMjT8BXhhjz8TQcMkh
p7932
aV13cJyLk1yQiJvQqWsMjT8BXhhjz8TQcMkh
p7933
aV13cJyLk1yQiJvQqWsMjT8BXhhjz8TQcMkh
p7934
atp7935
a(Vthebtcdude
p7936
(lp7937
V1KFHE7w8BhaENAswwryaoccDb6qcT6DbYY
p7938
atp7939
a(VFooQuuxman
p7940
(lp7941
V1BvstxjZ6f2Y2qC75af148WKCn6LQPh8qz
p7942
atp7943
a(Vavatarname
p7944
(lp7945
V1CounterpartyXXXXXXXXXXXXXXXUWLpVr
p7946
atp7947
a(Vsydeu
p7948
(lp7949
V1fuAvp6fpYiii8y8Vr9G7LCPcn3wdDGPj
p7950
atp7951
a(VSeriousJohan
p7952
(lp7953
V1DuayfQjd9S9RAd4DRZFi1ERSZtCkW4ijf
p7954
aV1FD8U5dUVcLVCEQxF5VEbzC3osT3gPnm4Q
p7955
atp7956
a(Vscammingvictim
p7957
(lp7958
V18TWdJKYwYAMLEyFW2P5UZ2jU9uY7mnKeU
p7959
atp7960
a(VGoodieGirlGolf
p7961
(lp7962
V147ohaSqRMY1rDs5W1RQtEeN6uqao71JFx
p7963
atp7964
a(Vyodi3111
p7965
(lp7966
V1D58ob4LopD1NU1G6SJVFKMXGMtBuLCiF8
p7967
atp7968
a(Vbabymonkey123
p7969
(lp7970
V1DfxwXVtDe38uDj3zyNkhzwfapCpHFp4ug
p7971
atp7972
a(Vikevin8me
p7973
(lp7974
V1J1vg3CZdWtpMjgV3aGLAdD2z9VLwycxtb
p7975
atp7976
a(VStonerChef
p7977
(lp7978
V1PnV2WWG9D3x9iJAYPbm4uqTwmez9nYDTh
p7979
atp7980
a(Vslipstream22
p7981
(lp7982
V1A4C99HH5KBhie4TqtdigrXJiQQi4eHk5m
p7983
aV1A4C99HH5KBhie4TqtdigrXJiQQi4eHk5m
p7984
atp7985
a(VThisIsFknHuge
p7986
(lp7987
V1AN8FNa9gyouDrTvNQEBT9X1jPk8TMpixS
p7988
atp7989
a(Vjonstern
p7990
(lp7991
V1N8zMwjtY6u51TpgxDfHQebJjDQzDTWz8L
p7992
atp7993
a(VmoonLanding123
p7994
(lp7995
V1x555x444x333x333xxxxxxxxxx
p7996
atp7997
a(Viwsfutcmd
p7998
(lp7999
V17yFutSCSuUkAWeqMCKRRcr8Go6t98YcoX
p8000
aV1DxFvJ6up9jXAZ9pkUmWVdiMTWvsjgB5Ea
p8001
atp8002
a(Vbonez656
p8003
(lp8004
V1Nx9GNacnXS8TmD4N34D53fvvua8HdudbC
p8005
aV1Nx9GNacnXS8TmD4N34D53fvvua8HdudbC
p8006
aV1Nx9GNacnXS8TmD4N34D53fvvua8HdudbC
p8007
aV1Nx9GNacnXS8TmD4N34D53fvvua8HdudbC
p8008
atp8009
a(Vmaraoz
p8010
(lp8011
V17yFutSCSuUkAWeqMCKRRcr8Go6t98YcoX
p8012
aV1DxFvJ6up9jXAZ9pkUmWVdiMTWvsjgB5Ea
p8013
atp8014
a(Vsenjutsuka
p8015
(lp8016
V17yFutSCSuUkAWeqMCKRRcr8Go6t98YcoX
p8017
aV1DxFvJ6up9jXAZ9pkUmWVdiMTWvsjgB5Ea
p8018
atp8019
a(Vginger_beer_m
p8020
(lp8021
V17yFutSCSuUkAWeqMCKRRcr8Go6t98YcoX
p8022
aV1DxFvJ6up9jXAZ9pkUmWVdiMTWvsjgB5Ea
p8023
atp8024
a(Vaaa801
p8025
(lp8026
V1J9sLnYRHFS1kQe7yg2yDW2JtjkbZ9NKL4
p8027
aV1J9sLnYRHFS1kQe7yg2yDW2JtjkbZ9NKL4
p8028
atp8029
a(VSarangha3yo
p8030
(lp8031
V1FnjtX4GfHnoAFsskrmypzLE1S3eAnbc6E
p8032
atp8033
a(VTheBusker
p8034
(lp8035
V17qts8BG7EsriqMVohykekWaAXuwSqe6PE
p8036
atp8037
a(Vbitcoinkinetics
p8038
(lp8039
V1DNkPNbQZEmvvWagwrXS9JbJaTpSo47WC7
p8040
atp8041
a(Vmrfield000
p8042
(lp8043
V1HmVdtqSxEReh4GVqLbSsgH7YArQb8xGq4
p8044
atp8045
a(VZuzyk
p8046
(lp8047
V1MFVDTfGb92i8ys2XZ9K3aFQYHKTRdazmy
p8048
atp8049
a(Vbtctickets
p8050
(lp8051
V19tG5r5nf4Xj5hx9p6UsEhtoCwEJRGmEvu
p8052
atp8053
a(VHeidernBuffalo
p8054
(lp8055
V1AjBRpwovechvEG9qjivmpdv1959Wgq8Jz
p8056
aV1AjBRpwovechvEG9qjivmpdv1959Wgq8Jz
p8057
atp8058
a(Vkleer001
p8059
(lp8060
V1KnBEzVqsw4oXNb9aGp46SMejwKEGjtgZq
p8061
atp8062
a(Vflitterio
p8063
(lp8064
V1A1zP1eP5QGefi2DMPTfTL5SLmv7DivfNa
p8065
aV1A1zP1eP5QGefi2DMPTfTL5SLmv7DivfNa
p8066
atp8067
a(Vfinnkk
p8068
(lp8069
V18ud75oTZGrrSQL7YP7ocesgmpnktFruif
p8070
atp8071
a(Vnov3a4
p8072
(lp8073
V1EKT9uaaDbTRuwjttFQbfax7KmGNZX32HP
p8074
atp8075
a(Vnanoakron
p8076
(lp8077
V1ChJMjNNu2cYef9ZsBZesyqqJPmCUSm6aW
p8078
aV14PFLDZPnMFr2KMqcgifGBQn4f5DmLy2rE
p8079
aV1667dggwAuUzsrcc1Ujmdj1pX6qecCdKz8
p8080
atp8081
a(VTim_Burton
p8082
(lp8083
V1NYj1rsRoeNt8FyV6WZjsDPH2nSktw4Vpz
p8084
atp8085
a(VDeviledMoon
p8086
(lp8087
V17C59gHDbSjQXVRGEZk17atgntZqPWG2Ri
p8088
atp8089
a(VFreedomfeens
p8090
(lp8091
V1HnScBGFFRKGab37Hg6c4T9XvaCWxTeHfW
p8092
atp8093
a(Vvmaxvn
p8094
(lp8095
V19mD4BkdRNucoEXy2qF7AQZHg72eYB6T7u
p8096
atp8097
a(Vnonlinearmedia
p8098
(lp8099
V18ud75oTZGrrSQL7YP7ocesgmpnktFruif
p8100
atp8101
a(Vcoinpositivedotcom
p8102
(lp8103
V14nu944b3Lpe1yPEAzCoaTyMrs6rsPNbtM
p8104
atp8105
a(Vggohnoes
p8106
(lp8107
V1mRxvhyn8H6fqLjpZAWvZDzYCN7heXmGs
p8108
atp8109
a(VBukowskaii
p8110
(lp8111
V1Q5yjET58DSEVgYH234V3fUHCDuHKgBgcz
p8112
atp8113
a(Vb-roc
p8114
(lp8115
V1FFirnLctcZxVx5otnLNZ4dDGUkMBM4vNr
p8116
atp8117
a(Vcoa21
p8118
(lp8119
V1FgDz8NGznWNvMW9DiJqPuv2yeLsACJr8L
p8120
aV1FgDz8NGznWNvMW9DiJqPuv2yeLsACJr8L
p8121
atp8122
a(Vgivethecoinsback
p8123
(lp8124
V1FfmbHfnpaZjKFvyi1okTjJJusN455paPH
p8125
aV1NjYqme9tVGFqZy6HqJBabfYKWRcv2m4Mb
p8126
atp8127
a(Vatomiccloud
p8128
(lp8129
V1AwangATDktxLw8e6VaDijw9AMWz5wy8bx
p8130
atp8131
a(Viamnotputin
p8132
(lp8133
V17TjQhFdSs78aJgK1gxyN34YuqzdPaMWjf
p8134
atp8135
a(VBalconySitter
p8136
(lp8137
V1AgwFajaTx4mdzTxWmQq7xveFSkN4AgHom
p8138
atp8139
a(Vbtcbrain
p8140
(lp8141
V16KaCJB7fVuT6hvA7wzgzVjAnHz28bNvvh
p8142
atp8143
a(VTheBusker
p8144
(lp8145
V17qts8BG7EsriqMVohykekWaAXuwSqe6PE
p8146
atp8147
a(Vareebmajeed
p8148
(lp8149
V1La9GFB8sNRko99jP2N5AMQYPvmsDoVbKb
p8150
atp8151
a(VMax_Findus
p8152
(lp8153
V1Neo513gAeWqsM54BmfMESwPWkVgBL7bLA
p8154
aV1Neo513gAeWqsM54BmfMESwPWkVgBL7bLA
p8155
atp8156
a(VCoinsForHumanity
p8157
(lp8158
V13xpB9JdYWDryyqgYPPfGBb2fDsjuzU35n
p8159
aV158MqUc15mpVpwsR13Qmx6RbpEX41ZkNJg
p8160
aV1KRPPngTnS8qNgeQDF9hwxVN8wHqSifqPt
p8161
aV132ZAmD9y6dfPJW9kv1sQeQqupM79TNaHV
p8162
aV1NTTNEa7gRRmKDG7r4vNA4h916Q8fsAsF8
p8163
atp8164
a(VBrianNowhere
p8165
(lp8166
V14LyCvPfdMyh6uevy9f2HmfGdwsVQXZiVb
p8167
atp8168
a(Vwhy_bitcoin_is_cool
p8169
(lp8170
V15ymWo7bXwAN2QfAjgYXJ2N3kbCo1QmGp4
p8171
aV15TGZdAuJyhDsiJi75Sjv4uvgLUQaJtvAy
p8172
atp8173
a(Vpimpingken
p8174
(lp8175
V16GP7fynpDwZ5oJzxoaBgSznPXqffNpNdt
p8176
atp8177
a(Vbrdrline
p8178
(lp8179
V1JfvCK3NAaKdQZCmu4vBjGhqAzxYrePsHg
p8180
atp8181
a(VCoinLottery
p8182
(lp8183
V121nULdijEBVf5pxmfJvZ9DZbH1njizKaV
p8184
atp8185
a(Vwhy_bitcoin_is_cool
p8186
(lp8187
V15ymWo7bXwAN2QfAjgYXJ2N3kbCo1QmGp4
p8188
atp8189
a(VSpaceFloow
p8190
(lp8191
V1J5WQzAbeUBCfs5XycbfLqx4yLR1oHz965
p8192
atp8193
a(VSileniced
p8194
(lp8195
V1KhHu1bQgdX5PCaheMPXbF3qmGPBby3xjs
p8196
atp8197
a(Vneuro8
p8198
(lp8199
V1AA44JE9k5CPpFEeAPY5f8HHyPc74CD8Hb
p8200
atp8201
a(Vnoservice4you
p8202
(lp8203
V12AA76FgZ7C8ujL56Rzf586kCoySSby4Ck
p8204
atp8205
a(Vexistra123
p8206
(lp8207
V1Cz4S7setGSYc39yXeCjmsfzb9DRiLi5gM
p8208
atp8209
a(VPawnShop804
p8210
(lp8211
V13R87ropkDKzDEuVeQoX64kkcLvPWVdTKH
p8212
atp8213
a(Vnick-ohu
p8214
(lp8215
V1BhKfpgiV3erm5o6WFQwAuokFy3nfbSeyF
p8216
atp8217
a(VWallStBTC
p8218
(lp8219
V1M72Sfpbz1BPpXFHz9m3CdqATR44Jvaydd
p8220
aV1M72Sfpbz1BPpXFHz9m3CdqATR44Jvaydd
p8221
aV1M72Sfpbz1BPpXFHz9m3CdqATR44Jvaydd
p8222
atp8223
a(Vb1tcoins4nta
p8224
(lp8225
V1M72Sfpbz1BPpXFHz9m3CdqATR44Jvaydd
p8226
atp8227
a(VSeanOutpost
p8228
(lp8229
V1b9cAnW1GxvGJbWjACqFQiUznYbMpZEsW
p8230
atp8231
a(Vmilkywaymasta
p8232
(lp8233
V1GkBw2o1ZeqsrbtVNbuBiqfoWd95Q2s6Ku
p8234
atp8235
a(VBitcoinsforBiofuels
p8236
(lp8237
V1M8nh8hwX8Qif1aXQgtRP2n8bZyZ5eGHpU
p8238
atp8239
a(VAlibambam
p8240
(lp8241
V1FFirnLctcZxVx5otnLNZ4dDGUkMBM4vNr
p8242
atp8243
a(VHarbingerx81
p8244
(lp8245
V15ynBx3euNAjYVn3wfCTzNzJid9RGeY5gQ
p8246
atp8247
a(Vjahanbin
p8248
(lp8249
V14H7TtQuMME1Ve8XKfywPWPG1uYYJvGjWL
p8250
atp8251
a(Vjcampah
p8252
(lp8253
V1AYtnRppWM7tWQaVLpm7TvcHKrjKxgCRvX
p8254
atp8255
a(VCSLAVE
p8256
(lp8257
V1Ejep8iB3QLkTJ8fSQucoj8KWcXHVManKG
p8258
atp8259
a(VJesusChristPooprstar
p8260
(lp8261
V1E7eMPaSe7nyyitTyompDrifRrRQbV6kCb
p8262
atp8263
a(Vjosiah__Coinsetter
p8264
(lp8265
V13f6vcKNGZxp6xegD3e5vNYvHHPMSk7mxj
p8266
atp8267
a(Vnazman101
p8268
(lp8269
V1ECW9X7D7E25ZQVhnnVQZc8puCz9UCpqRV
p8270
atp8271
a(VCapitally
p8272
(lp8273
V1Drt3c8pSdrkyjuBiwVcSSixZwQtMZ3Tew
p8274
atp8275
a(Vsdrawkcabton88
p8276
(lp8277
V1HB5XMLmzFVj8ALj6mfBsbifRoD4miY36v
p8278
aV1HB5XMLmzFVj8ALj6mfBsbifRoD4miY36v
p8279
atp8280
a(Vkellrobinson
p8281
(lp8282
V15r9bTpKPwLbL4FKUJfsqEN5g3EAMV9676
p8283
aV1NvLQ27uqztt2nQgFntZt8vfRrQpn5iQWv
p8284
atp8285
a(VPopeSeanV
p8286
(lp8287
V1DgdBX12uBKLg48Vo6z8oMHCF7U7MNfGUD
p8288
atp8289
a(Vcrowdmakr
p8290
(lp8291
V1BtRE6cSRMCoAkzgL6NRMiGPJRdfpGrkT8
p8292
atp8293
a(Vnebulizor
p8294
(lp8295
V1DK5Qc3dUWwYBtpisB6rGJUkHvNN1NR7C
p8296
atp8297
a(VSatoshiforpresident
p8298
(lp8299
V1ERi2kpdQL7i3cPgRx1RcabLmBuvuTdz7s
p8300
atp8301
a(VSixthtry
p8302
(lp8303
V15eoLGGEwnVyqUxY8yQrNKf6c8zM7Hqanh
p8304
aV1KaPzW1GPpYMzYBVTbHQ2zaUNfaMhPfZiU
p8305
aV1Gbp4mLHPepB3FFmBphhNcyLNaYLFyHcxj
p8306
atp8307
a(Vtheericfamily
p8308
(lp8309
V1PNGZhRETTRjb6XcvSDxyQ5nfUwaRxXfzr
p8310
atp8311
a(VHarbingerx81
p8312
(lp8313
V15ynBx3euNAjYVn3wfCTzNzJid9RGeY5gQ
p8314
atp8315
a(Vspence40
p8316
(lp8317
V1MtXnaCfNDmuJRqQQHFnqiJvzfYtyWJb83
p8318
atp8319
a(Vn3utr1no
p8320
(lp8321
V1Gq9CjafzzeftZXm2HrJjH5vh4oHQUrNqy
p8322
atp8323
a(Vcryptrader
p8324
(lp8325
V1BSeNnjRpC3gJxNpXW5mExaaBGdq8Tyqrv
p8326
atp8327
a(VA1nerd
p8328
(lp8329
V1G6XCkWXSmDSz2KbfGs5oa2GUs4Lmkw6FM
p8330
atp8331
a(VAnCapQc
p8332
(lp8333
V13PRJAEf1E6BDtjpxdgnQr1baHcFxoHwkH
p8334
atp8335
a(VRenben9
p8336
(lp8337
V1NXjqLrw5hgYr4sXpR94PLbrn34AyG9uej
p8338
aV1NXjqLrw5hgYr4sXpR94PLbrn34AyG9uej
p8339
atp8340
a(Vclementgamache
p8341
(lp8342
V18EbR1rWJuvbah5kQDNK6xRL7bfu19a7px
p8343
aV1ADccuvqoyRoJbJFsxJH1Bk4i2vmjKpy4i
p8344
atp8345
a(VBlake55
p8346
(lp8347
V1KFfQtNWaZAN4yuqxNWZH1sGZhah7d5Gx8
p8348
atp8349
a(Vashep979
p8350
(lp8351
V1JhnpVEQW5sqjodUn5GVzo22mohh2cVzA5
p8352
atp8353
a.